(dp0
V65fj5s
p1
(dp2
S'num_comments'
p3
I7
sS'downs'
p4
I0
sS'ups'
p5
I9
ssV65xe81
p6
(dp7
g3
I6
sg4
I0
sg5
I76
ssV65svwe
p8
(dp9
g3
I0
sg4
I0
sg5
I11
ssV64g4th
p10
(dp11
g3
I4
sg4
I0
sg5
I4
ssV65njyg
p12
(dp13
g3
I0
sg4
I0
sg5
I2
ssV65wmbs
p14
(dp15
g3
I0
sg4
I0
sg5
I1
ssV65ag32
p16
(dp17
g3
I5
sg4
I0
sg5
I169
ssV662rrf
p18
(dp19
g3
I9
sg4
I0
sg5
I200
ssV65ogrb
p20
(dp21
g3
I0
sg4
I0
sg5
I0
ssV652dxf
p22
(dp23
g3
I0
sg4
I0
sg5
I1
ssV65dhrk
p24
(dp25
g3
I0
sg4
I0
sg5
I14
ssV65sprd
p26
(dp27
g3
I8
sg4
I0
sg5
I40
ssV64tb8x
p28
(dp29
g3
I0
sg4
I0
sg5
I2
ssV62e5dl
p30
(dp31
g3
I0
sg4
I0
sg5
I4
ssVxkfgg
p32
(dp33
g3
I2
sg4
I0
sg5
I0
ssV66mtow
p34
(dp35
g3
I8
sg4
I0
sg5
I37
ssV65tsg2
p36
(dp37
g3
I2
sg4
I0
sg5
I8
ssV65u5wl
p38
(dp39
g3
I4
sg4
I0
sg5
I7
ssV654uo7
p40
(dp41
g3
I2
sg4
I0
sg5
I23
ssV65r19o
p42
(dp43
g3
I1
sg4
I0
sg5
I16
ssV66rjlj
p44
(dp45
g3
I1
sg4
I0
sg5
I5
ssV65k33g
p46
(dp47
g3
I0
sg4
I0
sg5
I0
ssV65rj7b
p48
(dp49
g3
I2
sg4
I0
sg5
I0
ssV66a2we
p50
(dp51
g3
I1
sg4
I0
sg5
I17
ssV65ln61
p52
(dp53
g3
I0
sg4
I0
sg5
I0
ssV65w9x4
p54
(dp55
g3
I6
sg4
I0
sg5
I2
ssV2vdizd
p56
(dp57
g3
I0
sg4
I0
sg5
I0
ssV2vhbt9
p58
(dp59
g3
I0
sg4
I0
sg5
I7
ssV65pyxj
p60
(dp61
g3
I0
sg4
I0
sg5
I0
ssV66rjp8
p62
(dp63
g3
I3
sg4
I0
sg5
I23
ssV65lt9s
p64
(dp65
g3
I3
sg4
I0
sg5
I8
ssV1h7tuj
p66
(dp67
g3
I2
sg4
I0
sg5
I97
ssV6723ew
p68
(dp69
g3
I1
sg4
I0
sg5
I8
ssV63vs6u
p70
(dp71
g3
I2
sg4
I0
sg5
I54
ssV2v4btp
p72
(dp73
g3
I1
sg4
I0
sg5
I23
ssV65mxu9
p74
(dp75
g3
I0
sg4
I0
sg5
I1
ssV65ig86
p76
(dp77
g3
I0
sg4
I0
sg5
I1
ssV65jiag
p78
(dp79
g3
I0
sg4
I0
sg5
I1
ssV65jwqd
p80
(dp81
g3
I1
sg4
I0
sg5
I2
ssV65lpsy
p82
(dp83
g3
I2
sg4
I0
sg5
I0
ssV65jwgj
p84
(dp85
g3
I2
sg4
I0
sg5
I29
ssV65qpby
p86
(dp87
g3
I5
sg4
I0
sg5
I0
ssV63ec3x
p88
(dp89
g3
I4
sg4
I0
sg5
I252
ssV65vexs
p90
(dp91
g3
I0
sg4
I0
sg5
I29
ssV62t3d0
p92
(dp93
g3
I10
sg4
I0
sg5
I877
ssV65vinh
p94
(dp95
g3
I1
sg4
I0
sg5
I1
ssV2vc8md
p96
(dp97
g3
I0
sg4
I0
sg5
I3
ssV1gbmxp
p98
(dp99
g3
I33
sg4
I0
sg5
I68
ssV62c70y
p100
(dp101
g3
I1
sg4
I0
sg5
I29
ssV66ur2x
p102
(dp103
g3
I2
sg4
I0
sg5
I21
ssV644xlp
p104
(dp105
g3
I23
sg4
I0
sg5
I212
ssV65fc0j
p106
(dp107
g3
I2
sg4
I0
sg5
I0
ssV66xaxj
p108
(dp109
g3
I0
sg4
I0
sg5
I12
ssV65j3fz
p110
(dp111
g3
I2
sg4
I0
sg5
I0
ssV63h392
p112
(dp113
g3
I23
sg4
I0
sg5
I1138
ssV2v34qh
p114
(dp115
g3
I2
sg4
I0
sg5
I19
ssV65rp7s
p116
(dp117
g3
I2
sg4
I0
sg5
I0
ssV64cry6
p118
(dp119
g3
I1
sg4
I0
sg5
I2
ssV65j68h
p120
(dp121
g3
I0
sg4
I0
sg5
I2
ssV65rkk2
p122
(dp123
g3
I3
sg4
I0
sg5
I31
ssV63dldb
p124
(dp125
g3
I0
sg4
I0
sg5
I4
ssV63r9rm
p126
(dp127
g3
I0
sg4
I0
sg5
I10
ssV65pqxl
p128
(dp129
g3
I2
sg4
I0
sg5
I0
ssV65tfty
p130
(dp131
g3
I3
sg4
I0
sg5
I3
ssV647ewf
p132
(dp133
g3
I2
sg4
I0
sg5
I10
ssV1h9y15
p134
(dp135
g3
I7
sg4
I0
sg5
I207
ssV65hs46
p136
(dp137
g3
I0
sg4
I0
sg5
I5
ssV63bo0w
p138
(dp139
g3
I0
sg4
I0
sg5
I9
ssV650vzh
p140
(dp141
g3
I1
sg4
I0
sg5
I7
ssV2v8i2f
p142
(dp143
g3
I0
sg4
I0
sg5
I1
ssVxkbw3
p144
(dp145
g3
I4
sg4
I0
sg5
I0
ssV65klaj
p146
(dp147
g3
I4
sg4
I0
sg5
I18
ssV65mcfu
p148
(dp149
g3
I1
sg4
I0
sg5
I15
ssV65tyjb
p150
(dp151
g3
I6
sg4
I0
sg5
I24
ssV64y8cw
p152
(dp153
g3
I2
sg4
I0
sg5
I19
ssV1hqb7n
p154
(dp155
g3
I0
sg4
I0
sg5
I1
ssV663zdx
p156
(dp157
g3
I2
sg4
I0
sg5
I0
ssV1epasz
p158
(dp159
g3
I1
sg4
I0
sg5
I64
ssV65rgc6
p160
(dp161
g3
I0
sg4
I0
sg5
I0
ssV646cxo
p162
(dp163
g3
I0
sg4
I0
sg5
I1
ssV65j9pe
p164
(dp165
g3
I0
sg4
I0
sg5
I8
ssV1i6dw7
p166
(dp167
g3
I5
sg4
I0
sg5
I31
ssV66erc7
p168
(dp169
g3
I1
sg4
I0
sg5
I4
ssV65x830
p170
(dp171
g3
I0
sg4
I0
sg5
I26
ssV65hxj1
p172
(dp173
g3
I1
sg4
I0
sg5
I1
ssV65iky4
p174
(dp175
g3
I2
sg4
I0
sg5
I2
ssV65pr2k
p176
(dp177
g3
I2
sg4
I0
sg5
I5
ssV65rv93
p178
(dp179
g3
I2
sg4
I0
sg5
I0
ssV62zy6m
p180
(dp181
g3
I6
sg4
I0
sg5
I158
ssV65rn9v
p182
(dp183
g3
I3
sg4
I0
sg5
I1
ssV65gu9r
p184
(dp185
g3
I2
sg4
I0
sg5
I65
ssV66aop2
p186
(dp187
g3
I0
sg4
I0
sg5
I1
ssV65wczi
p188
(dp189
g3
I0
sg4
I0
sg5
I2
ssV65eo88
p190
(dp191
g3
I20
sg4
I0
sg5
I40
ssV65sioi
p192
(dp193
g3
I2
sg4
I0
sg5
I8
ssV643ft5
p194
(dp195
g3
I1
sg4
I0
sg5
I5
ssV62kjd1
p196
(dp197
g3
I0
sg4
I0
sg5
I1
ssV65jf9e
p198
(dp199
g3
I0
sg4
I0
sg5
I0
ssV65kla2
p200
(dp201
g3
I0
sg4
I0
sg5
I0
ssV65kla1
p202
(dp203
g3
I0
sg4
I0
sg5
I2
ssV65ienl
p204
(dp205
g3
I0
sg4
I0
sg5
I0
ssV65qs79
p206
(dp207
g3
I0
sg4
I0
sg5
I6
ssV65txzd
p208
(dp209
g3
I2
sg4
I0
sg5
I122
ssV65hhrl
p210
(dp211
g3
I38
sg4
I0
sg5
I1721
ssV65jjyu
p212
(dp213
g3
I2
sg4
I0
sg5
I7
ssV65wi34
p214
(dp215
g3
I5
sg4
I0
sg5
I16
ssV64tovl
p216
(dp217
g3
I1
sg4
I0
sg5
I23
ssV65gb5w
p218
(dp219
g3
I0
sg4
I0
sg5
I0
ssV66rsce
p220
(dp221
g3
I9
sg4
I0
sg5
I154
ssV6305wo
p222
(dp223
g3
I1
sg4
I0
sg5
I15
ssV673qof
p224
(dp225
g3
I1
sg4
I0
sg5
I4
ssV632lgi
p226
(dp227
g3
I0
sg4
I0
sg5
I5
ssV65va73
p228
(dp229
g3
I2
sg4
I0
sg5
I6
ssV65u0ce
p230
(dp231
g3
I1
sg4
I0
sg5
I3
ssV65bqlf
p232
(dp233
g3
I0
sg4
I0
sg5
I9
ssV65ojb0
p234
(dp235
g3
I3
sg4
I0
sg5
I12
ssV63dj7w
p236
(dp237
g3
I2
sg4
I0
sg5
I30
ssV65va75
p238
(dp239
g3
I550
sg4
I0
sg5
I33401
ssV65mk1q
p240
(dp241
g3
I0
sg4
I0
sg5
I0
ssV65m65h
p242
(dp243
g3
I4
sg4
I0
sg5
I3
ssV65nio7
p244
(dp245
g3
I6
sg4
I0
sg5
I4
ssV664s1c
p246
(dp247
g3
I3
sg4
I0
sg5
I6
ssV65vabn
p248
(dp249
g3
I1
sg4
I0
sg5
I1
ssV6685ci
p250
(dp251
g3
I1
sg4
I0
sg5
I2
ssV6609jq
p252
(dp253
g3
I0
sg4
I0
sg5
I2
ssV65vy9w
p254
(dp255
g3
I0
sg4
I0
sg5
I1
ssV63o0u2
p256
(dp257
g3
I1
sg4
I0
sg5
I0
ssV62qz68
p258
(dp259
g3
I0
sg4
I0
sg5
I36
ssV1g2uxt
p260
(dp261
g3
I0
sg4
I0
sg5
I31
ssV1gg421
p262
(dp263
g3
I6
sg4
I0
sg5
I240
ssV65tcvu
p264
(dp265
g3
I3
sg4
I0
sg5
I17
ssV65grmv
p266
(dp267
g3
I0
sg4
I0
sg5
I0
ssV66c3ks
p268
(dp269
g3
I0
sg4
I0
sg5
I8
ssV63c70h
p270
(dp271
g3
I0
sg4
I0
sg5
I1
ssV63e5qr
p272
(dp273
g3
I0
sg4
I0
sg5
I0
ssV65vyrz
p274
(dp275
g3
I0
sg4
I0
sg5
I14
ssV666pnz
p276
(dp277
g3
I0
sg4
I0
sg5
I4
ssV2v5gae
p278
(dp279
g3
I0
sg4
I0
sg5
I17
ssV65y76k
p280
(dp281
g3
I0
sg4
I0
sg5
I4
ssV65ilif
p282
(dp283
g3
I0
sg4
I0
sg5
I1
ssV63do09
p284
(dp285
g3
I0
sg4
I0
sg5
I31
ssV2v1zsi
p286
(dp287
g3
I1
sg4
I0
sg5
I0
ssV65pakj
p288
(dp289
g3
I2
sg4
I0
sg5
I2
ssV649p37
p290
(dp291
g3
I6
sg4
I0
sg5
I26
ssV1hkf0z
p292
(dp293
g3
I7
sg4
I0
sg5
I165
ssV65umte
p294
(dp295
g3
I13
sg4
I0
sg5
I512
ssV670res
p296
(dp297
g3
I4
sg4
I0
sg5
I5
ssV1hbmxz
p298
(dp299
g3
I1
sg4
I0
sg5
I44
ssV65ing8
p300
(dp301
g3
I0
sg4
I0
sg5
I2
ssV2vaa23
p302
(dp303
g3
I1
sg4
I0
sg5
I4
ssV1hsyys
p304
(dp305
g3
I0
sg4
I0
sg5
I4
ssV1i47vj
p306
(dp307
g3
I0
sg4
I0
sg5
I2
ssV668411
p308
(dp309
g3
I0
sg4
I0
sg5
I4
ssV653yw1
p310
(dp311
g3
I3
sg4
I0
sg5
I11
ssV63jaor
p312
(dp313
g3
I0
sg4
I0
sg5
I2
ssV65s4fb
p314
(dp315
g3
I0
sg4
I0
sg5
I0
ssV647c8n
p316
(dp317
g3
I0
sg4
I0
sg5
I7
ssV65mcxv
p318
(dp319
g3
I10
sg4
I0
sg5
I12
ssV65i31w
p320
(dp321
g3
I0
sg4
I0
sg5
I0
ssV65ilov
p322
(dp323
g3
I31
sg4
I0
sg5
I700
ssV65uw9q
p324
(dp325
g3
I9
sg4
I0
sg5
I277
ssV65fewj
p326
(dp327
g3
I3
sg4
I0
sg5
I2
ssV1hkg7z
p328
(dp329
g3
I16
sg4
I0
sg5
I39
ssV65ioe3
p330
(dp331
g3
I0
sg4
I0
sg5
I0
ssV62tbwj
p332
(dp333
g3
I8
sg4
I0
sg5
I153
ssV65zw11
p334
(dp335
g3
I0
sg4
I0
sg5
I3
ssV65ipf7
p336
(dp337
g3
I1
sg4
I0
sg5
I2
ssV6651hd
p338
(dp339
g3
I0
sg4
I0
sg5
I1
ssV65t6r0
p340
(dp341
g3
I5
sg4
I0
sg5
I62
ssV65mt2g
p342
(dp343
g3
I0
sg4
I0
sg5
I7
ssV1g3at2
p344
(dp345
g3
I10
sg4
I0
sg5
I589
ssV65jler
p346
(dp347
g3
I0
sg4
I0
sg5
I0
ssV62d5js
p348
(dp349
g3
I0
sg4
I0
sg5
I0
ssV65kpxm
p350
(dp351
g3
I0
sg4
I0
sg5
I1
ssV64qcel
p352
(dp353
g3
I5
sg4
I0
sg5
I13
ssV65er3b
p354
(dp355
g3
I0
sg4
I0
sg5
I0
ssV672apw
p356
(dp357
g3
I0
sg4
I0
sg5
I5
ssV672pio
p358
(dp359
g3
I1
sg4
I0
sg5
I4
ssV66dhqd
p360
(dp361
g3
I3
sg4
I0
sg5
I12
ssV65ilgk
p362
(dp363
g3
I3
sg4
I0
sg5
I1
ssV65ka4h
p364
(dp365
g3
I1
sg4
I0
sg5
I1
ssV65p36c
p366
(dp367
g3
I14
sg4
I0
sg5
I188
ssV65hnqo
p368
(dp369
g3
I1
sg4
I0
sg5
I0
ssV65i95y
p370
(dp371
g3
I1
sg4
I0
sg5
I2
ssV65nu09
p372
(dp373
g3
I4
sg4
I0
sg5
I1
ssV648dp3
p374
(dp375
g3
I0
sg4
I0
sg5
I1
ssV64f0wi
p376
(dp377
g3
I2
sg4
I0
sg5
I12
ssV65tqvs
p378
(dp379
g3
I2
sg4
I0
sg5
I6
ssV63hjb9
p380
(dp381
g3
I1
sg4
I0
sg5
I23
ssV65uwf8
p382
(dp383
g3
I0
sg4
I0
sg5
I0
ssV62hm07
p384
(dp385
g3
I0
sg4
I0
sg5
I0
ssV64wve6
p386
(dp387
g3
I4
sg4
I0
sg5
I10
ssV65g04j
p388
(dp389
g3
I2
sg4
I0
sg5
I7
ssV65kpkd
p390
(dp391
g3
I2
sg4
I0
sg5
I1
ssV65wud7
p392
(dp393
g3
I6
sg4
I0
sg5
I63
ssV642mdd
p394
(dp395
g3
I0
sg4
I0
sg5
I1
ssV637u91
p396
(dp397
g3
I7
sg4
I0
sg5
I92
ssV65vzxj
p398
(dp399
g3
I0
sg4
I0
sg5
I0
ssV64llrf
p400
(dp401
g3
I0
sg4
I0
sg5
I1
ssV65gvm3
p402
(dp403
g3
I20
sg4
I0
sg5
I8
ssV63iu88
p404
(dp405
g3
I1
sg4
I0
sg5
I7
ssV65ljn6
p406
(dp407
g3
I2
sg4
I0
sg5
I4
ssV65mjlc
p408
(dp409
g3
I4
sg4
I0
sg5
I12
ssV65pksd
p410
(dp411
g3
I0
sg4
I0
sg5
I1
ssV66dmuy
p412
(dp413
g3
I0
sg4
I0
sg5
I1
ssV65yneu
p414
(dp415
g3
I0
sg4
I0
sg5
I6
ssV66btf1
p416
(dp417
g3
I22
sg4
I0
sg5
I5
ssV63vs02
p418
(dp419
g3
I50
sg4
I0
sg5
I3671
ssV65u8pe
p420
(dp421
g3
I0
sg4
I0
sg5
I0
ssV64zhn0
p422
(dp423
g3
I2
sg4
I0
sg5
I12
ssV65if91
p424
(dp425
g3
I1
sg4
I0
sg5
I1
ssV65jgtf
p426
(dp427
g3
I3
sg4
I0
sg5
I0
ssV64rnk4
p428
(dp429
g3
I1
sg4
I0
sg5
I7
ssV2v4l1s
p430
(dp431
g3
I0
sg4
I0
sg5
I0
ssV65k8jt
p432
(dp433
g3
I0
sg4
I0
sg5
I2
ssV65obcj
p434
(dp435
g3
I11
sg4
I0
sg5
I485
ssV637dm3
p436
(dp437
g3
I6
sg4
I0
sg5
I66
ssV1gq8kf
p438
(dp439
g3
I17
sg4
I0
sg5
I35
ssV663dl3
p440
(dp441
g3
I0
sg4
I0
sg5
I6
ssV65hhzp
p442
(dp443
g3
I2
sg4
I0
sg5
I3
ssV655gl9
p444
(dp445
g3
I0
sg4
I0
sg5
I4
ssV64q65a
p446
(dp447
g3
I1
sg4
I0
sg5
I11
ssV63askt
p448
(dp449
g3
I10
sg4
I0
sg5
I507
ssV65f9w2
p450
(dp451
g3
I1
sg4
I0
sg5
I2
ssV65h8ja
p452
(dp453
g3
I2
sg4
I0
sg5
I0
ssV65nz3f
p454
(dp455
g3
I10
sg4
I0
sg5
I142
ssV65k327
p456
(dp457
g3
I0
sg4
I0
sg5
I1
ssV65gp71
p458
(dp459
g3
I2
sg4
I0
sg5
I6
ssV62itkc
p460
(dp461
g3
I1
sg4
I0
sg5
I18
ssV65hgai
p462
(dp463
g3
I1
sg4
I0
sg5
I1
ssV66mln1
p464
(dp465
g3
I32
sg4
I0
sg5
I856
ssV65mf4c
p466
(dp467
g3
I0
sg4
I0
sg5
I3
ssV66jlg0
p468
(dp469
g3
I2
sg4
I0
sg5
I56
ssV66krax
p470
(dp471
g3
I1
sg4
I0
sg5
I2
ssV2vhuj6
p472
(dp473
g3
I2
sg4
I0
sg5
I84
ssV64hmr3
p474
(dp475
g3
I1
sg4
I0
sg5
I4
ssV6431t0
p476
(dp477
g3
I5
sg4
I0
sg5
I35
ssV65wqtz
p478
(dp479
g3
I2
sg4
I0
sg5
I11
ssV65uzkx
p480
(dp481
g3
I0
sg4
I0
sg5
I29
ssV65wdqv
p482
(dp483
g3
I3
sg4
I0
sg5
I20
ssV667j40
p484
(dp485
g3
I0
sg4
I0
sg5
I4
ssV644zv6
p486
(dp487
g3
I0
sg4
I0
sg5
I3
ssV1hm7b0
p488
(dp489
g3
I2
sg4
I0
sg5
I80
ssV65jy9e
p490
(dp491
g3
I0
sg4
I0
sg5
I34
ssV2v3rqi
p492
(dp493
g3
I1
sg4
I0
sg5
I0
ssV65mc34
p494
(dp495
g3
I7
sg4
I0
sg5
I0
ssV65gjit
p496
(dp497
g3
I2
sg4
I0
sg5
I6
ssV65jz0n
p498
(dp499
g3
I14
sg4
I0
sg5
I93
ssV65q3i3
p500
(dp501
g3
I3
sg4
I0
sg5
I0
ssV65545b
p502
(dp503
g3
I4
sg4
I0
sg5
I79
ssV65lprb
p504
(dp505
g3
I2
sg4
I0
sg5
I5
ssV63f964
p506
(dp507
g3
I0
sg4
I0
sg5
I1
ssV63oxy4
p508
(dp509
g3
I0
sg4
I0
sg5
I21
ssV62ltfv
p510
(dp511
g3
I1
sg4
I0
sg5
I6
ssV65mvrm
p512
(dp513
g3
I4
sg4
I0
sg5
I0
ssV65q7qp
p514
(dp515
g3
I0
sg4
I0
sg5
I1
ssV660xy0
p516
(dp517
g3
I4
sg4
I0
sg5
I24
ssV6697pd
p518
(dp519
g3
I3
sg4
I0
sg5
I32
ssV65pzfo
p520
(dp521
g3
I1
sg4
I0
sg5
I11
ssV65fd8t
p522
(dp523
g3
I3
sg4
I0
sg5
I4
ssV65h4tq
p524
(dp525
g3
I2
sg4
I0
sg5
I0
ssV6632bs
p526
(dp527
g3
I7
sg4
I0
sg5
I117
ssV65mprz
p528
(dp529
g3
I1
sg4
I0
sg5
I0
ssV65k03e
p530
(dp531
g3
I0
sg4
I0
sg5
I1
ssV65rirq
p532
(dp533
g3
I9
sg4
I0
sg5
I46
ssV65su4m
p534
(dp535
g3
I0
sg4
I0
sg5
I0
ssV65vbno
p536
(dp537
g3
I1
sg4
I0
sg5
I1
ssV660shz
p538
(dp539
g3
I0
sg4
I0
sg5
I2
ssV65hc51
p540
(dp541
g3
I0
sg4
I0
sg5
I3
ssV669cjq
p542
(dp543
g3
I0
sg4
I0
sg5
I1
ssV65r2y2
p544
(dp545
g3
I1
sg4
I0
sg5
I4
ssV65p8e4
p546
(dp547
g3
I0
sg4
I0
sg5
I0
ssV65npt7
p548
(dp549
g3
I0
sg4
I0
sg5
I1
ssV65qgas
p550
(dp551
g3
I10
sg4
I0
sg5
I19
ssV65kj00
p552
(dp553
g3
I0
sg4
I0
sg5
I3
ssV65smmg
p554
(dp555
g3
I0
sg4
I0
sg5
I4
ssV65f3ft
p556
(dp557
g3
I0
sg4
I0
sg5
I2
ssV65q88k
p558
(dp559
g3
I1
sg4
I0
sg5
I5
ssV65iwn1
p560
(dp561
g3
I0
sg4
I0
sg5
I1
ssV65rapa
p562
(dp563
g3
I3
sg4
I0
sg5
I0
ssV64vj2x
p564
(dp565
g3
I2
sg4
I0
sg5
I5
ssV640m1k
p566
(dp567
g3
I2
sg4
I0
sg5
I73
ssV65pnai
p568
(dp569
g3
I0
sg4
I0
sg5
I0
ssV65z0cn
p570
(dp571
g3
I0
sg4
I0
sg5
I2
ssV63md4v
p572
(dp573
g3
I0
sg4
I0
sg5
I1
ssV65qrk9
p574
(dp575
g3
I0
sg4
I0
sg5
I0
ssV1ieg4j
p576
(dp577
g3
I0
sg4
I0
sg5
I10
ssV65q3iu
p578
(dp579
g3
I0
sg4
I0
sg5
I0
ssV63jz27
p580
(dp581
g3
I6
sg4
I0
sg5
I303
ssV66pf04
p582
(dp583
g3
I2
sg4
I0
sg5
I15
ssV650acj
p584
(dp585
g3
I0
sg4
I0
sg5
I4
ssV660mhy
p586
(dp587
g3
I0
sg4
I0
sg5
I2
ssV2v3ix7
p588
(dp589
g3
I0
sg4
I0
sg5
I0
ssV65ssjb
p590
(dp591
g3
I4
sg4
I0
sg5
I5
ssV64tj7z
p592
(dp593
g3
I1
sg4
I0
sg5
I0
ssV1idjqr
p594
(dp595
g3
I0
sg4
I0
sg5
I24
ssV65q97z
p596
(dp597
g3
I1
sg4
I0
sg5
I0
ssV632cjw
p598
(dp599
g3
I0
sg4
I0
sg5
I1
ssV65wik2
p600
(dp601
g3
I1
sg4
I0
sg5
I0
ssV65hsln
p602
(dp603
g3
I0
sg4
I0
sg5
I9
ssV65j522
p604
(dp605
g3
I7
sg4
I0
sg5
I28
ssV1epfuw
p606
(dp607
g3
I1
sg4
I0
sg5
I7
ssV65hilu
p608
(dp609
g3
I3
sg4
I0
sg5
I9
ssV64o0ur
p610
(dp611
g3
I8
sg4
I0
sg5
I233
ssV65jy5k
p612
(dp613
g3
I7
sg4
I0
sg5
I2
ssV64rnu2
p614
(dp615
g3
I2
sg4
I0
sg5
I3
ssV65g3n4
p616
(dp617
g3
I1
sg4
I0
sg5
I13
ssV2v5hsl
p618
(dp619
g3
I2
sg4
I0
sg5
I6
ssV633b0y
p620
(dp621
g3
I0
sg4
I0
sg5
I23
ssV65egfc
p622
(dp623
g3
I2
sg4
I0
sg5
I10
ssV1icr4t
p624
(dp625
g3
I22
sg4
I0
sg5
I500
ssV65o68r
p626
(dp627
g3
I0
sg4
I0
sg5
I2
ssV65on98
p628
(dp629
g3
I0
sg4
I0
sg5
I6
ssV66tvvd
p630
(dp631
g3
I0
sg4
I0
sg5
I3
ssV66oj85
p632
(dp633
g3
I0
sg4
I0
sg5
I3
ssV65k5sw
p634
(dp635
g3
I0
sg4
I0
sg5
I0
ssV65v0uq
p636
(dp637
g3
I0
sg4
I0
sg5
I2
ssV1i1575
p638
(dp639
g3
I1
sg4
I0
sg5
I133
ssV65rv8e
p640
(dp641
g3
I3
sg4
I0
sg5
I81
ssV65w7fk
p642
(dp643
g3
I0
sg4
I0
sg5
I0
ssV65llko
p644
(dp645
g3
I1
sg4
I0
sg5
I6
ssV65rt4w
p646
(dp647
g3
I2
sg4
I0
sg5
I3
ssV65pb13
p648
(dp649
g3
I7
sg4
I0
sg5
I3
ssV642t8f
p650
(dp651
g3
I6
sg4
I0
sg5
I25
ssV65wtl2
p652
(dp653
g3
I4
sg4
I0
sg5
I40
ssV65v9f8
p654
(dp655
g3
I11
sg4
I0
sg5
I230
ssV65okyy
p656
(dp657
g3
I1
sg4
I0
sg5
I2
ssV65pxkr
p658
(dp659
g3
I3
sg4
I0
sg5
I89
ssV65icng
p660
(dp661
g3
I8
sg4
I0
sg5
I35
ssV63gnhm
p662
(dp663
g3
I0
sg4
I0
sg5
I1
ssV64ald4
p664
(dp665
g3
I32
sg4
I0
sg5
I777
ssV65wlo1
p666
(dp667
g3
I3
sg4
I0
sg5
I2
ssV65nb0x
p668
(dp669
g3
I3
sg4
I0
sg5
I6
ssV65r1ga
p670
(dp671
g3
I9
sg4
I0
sg5
I30
ssV1hqkci
p672
(dp673
g3
I7
sg4
I0
sg5
I29
ssV65r1gn
p674
(dp675
g3
I0
sg4
I0
sg5
I0
ssV65rab6
p676
(dp677
g3
I8
sg4
I0
sg5
I0
ssV65tfvb
p678
(dp679
g3
I3
sg4
I0
sg5
I0
ssV1epuny
p680
(dp681
g3
I2
sg4
I0
sg5
I61
ssV65j3uk
p682
(dp683
g3
I1
sg4
I0
sg5
I1
ssV645d6y
p684
(dp685
g3
I2
sg4
I0
sg5
I6
ssV64r7e4
p686
(dp687
g3
I0
sg4
I0
sg5
I4
ssV63uyr3
p688
(dp689
g3
I0
sg4
I0
sg5
I28
ssV63dlit
p690
(dp691
g3
I5
sg4
I0
sg5
I38
ssV64elc8
p692
(dp693
g3
I0
sg4
I0
sg5
I4
ssV1ggcli
p694
(dp695
g3
I2
sg4
I0
sg5
I28
ssV65wmer
p696
(dp697
g3
I0
sg4
I0
sg5
I2
ssV65ysoa
p698
(dp699
g3
I0
sg4
I0
sg5
I5
ssV64ctx8
p700
(dp701
g3
I1
sg4
I0
sg5
I12
ssV63jpgs
p702
(dp703
g3
I11
sg4
I0
sg5
I275
ssV65pp3r
p704
(dp705
g3
I2
sg4
I0
sg5
I0
ssV64eec2
p706
(dp707
g3
I2
sg4
I0
sg5
I25
ssV63we72
p708
(dp709
g3
I0
sg4
I0
sg5
I0
ssV1hh81o
p710
(dp711
g3
I5
sg4
I0
sg5
I94
ssV65pyyt
p712
(dp713
g3
I0
sg4
I0
sg5
I0
ssV65gc1a
p714
(dp715
g3
I0
sg4
I0
sg5
I4
ssV65oxdr
p716
(dp717
g3
I2
sg4
I0
sg5
I11
ssV64wu85
p718
(dp719
g3
I0
sg4
I0
sg5
I1
ssV66fs00
p720
(dp721
g3
I0
sg4
I0
sg5
I3
ssV65z46e
p722
(dp723
g3
I1
sg4
I0
sg5
I10
ssV1iglm9
p724
(dp725
g3
I1
sg4
I0
sg5
I4
ssV65x7n0
p726
(dp727
g3
I0
sg4
I0
sg5
I2
ssV65tokq
p728
(dp729
g3
I9
sg4
I0
sg5
I74
ssV64p5qe
p730
(dp731
g3
I0
sg4
I0
sg5
I4
ssV65rkhl
p732
(dp733
g3
I0
sg4
I0
sg5
I1
ssV65lzr8
p734
(dp735
g3
I4
sg4
I0
sg5
I13
ssV63o6pe
p736
(dp737
g3
I0
sg4
I0
sg5
I6
ssV65nuhj
p738
(dp739
g3
I3
sg4
I0
sg5
I10
ssV65rpao
p740
(dp741
g3
I0
sg4
I0
sg5
I3
ssV65hqyi
p742
(dp743
g3
I7
sg4
I0
sg5
I20
ssV65uqjk
p744
(dp745
g3
I0
sg4
I0
sg5
I6
ssV65trxo
p746
(dp747
g3
I2
sg4
I0
sg5
I3
ssV65nvbj
p748
(dp749
g3
I1
sg4
I0
sg5
I11
ssV668fft
p750
(dp751
g3
I0
sg4
I0
sg5
I12
ssV65m3zj
p752
(dp753
g3
I0
sg4
I0
sg5
I0
ssV1hvyfu
p754
(dp755
g3
I8
sg4
I0
sg5
I53
ssV64p2cj
p756
(dp757
g3
I1
sg4
I0
sg5
I10
ssV66xt9w
p758
(dp759
g3
I1
sg4
I0
sg5
I30
ssV63mh4i
p760
(dp761
g3
I0
sg4
I0
sg5
I9
ssV65mau9
p762
(dp763
g3
I0
sg4
I0
sg5
I6
ssV65ivfb
p764
(dp765
g3
I81
sg4
I0
sg5
I3510
ssV64sgjn
p766
(dp767
g3
I3
sg4
I0
sg5
I15
ssV65kve9
p768
(dp769
g3
I2
sg4
I0
sg5
I29
ssV65h3c6
p770
(dp771
g3
I2
sg4
I0
sg5
I0
ssV655se2
p772
(dp773
g3
I0
sg4
I0
sg5
I7
ssV65h78o
p774
(dp775
g3
I1
sg4
I0
sg5
I2
ssV65loq5
p776
(dp777
g3
I0
sg4
I0
sg5
I1
ssV65mxfl
p778
(dp779
g3
I2
sg4
I0
sg5
I14
ssV64qefu
p780
(dp781
g3
I5
sg4
I0
sg5
I58
ssV65ctui
p782
(dp783
g3
I1
sg4
I0
sg5
I47
ssV65ojmk
p784
(dp785
g3
I3
sg4
I0
sg5
I13
ssV65mi2d
p786
(dp787
g3
I2
sg4
I0
sg5
I0
ssV65rf8v
p788
(dp789
g3
I0
sg4
I0
sg5
I0
ssV1ifq0a
p790
(dp791
g3
I2
sg4
I0
sg5
I158
ssV65jzy4
p792
(dp793
g3
I4
sg4
I0
sg5
I2
ssV65sajh
p794
(dp795
g3
I1
sg4
I0
sg5
I7
ssV670yt5
p796
(dp797
g3
I1
sg4
I0
sg5
I18
ssV2vc41z
p798
(dp799
g3
I4
sg4
I0
sg5
I27
ssV65mi2j
p800
(dp801
g3
I0
sg4
I0
sg5
I0
ssV62rcgm
p802
(dp803
g3
I0
sg4
I0
sg5
I1
ssV657i4k
p804
(dp805
g3
I2
sg4
I0
sg5
I10
ssV630uix
p806
(dp807
g3
I0
sg4
I0
sg5
I1
ssV65svkz
p808
(dp809
g3
I1
sg4
I0
sg5
I1
ssV65vf90
p810
(dp811
g3
I1
sg4
I0
sg5
I0
ssV65hkh9
p812
(dp813
g3
I2
sg4
I0
sg5
I1
ssV65w2sf
p814
(dp815
g3
I0
sg4
I0
sg5
I1
ssV63myj1
p816
(dp817
g3
I1
sg4
I0
sg5
I14
ssV65f0nh
p818
(dp819
g3
I0
sg4
I0
sg5
I0
ssV65uegj
p820
(dp821
g3
I7
sg4
I0
sg5
I3
ssV1ifvm6
p822
(dp823
g3
I4
sg4
I0
sg5
I63
ssV65hgp0
p824
(dp825
g3
I0
sg4
I0
sg5
I0
ssV65jlr8
p826
(dp827
g3
I0
sg4
I0
sg5
I2
ssV65loqp
p828
(dp829
g3
I0
sg4
I0
sg5
I9
ssV63d1wd
p830
(dp831
g3
I1
sg4
I0
sg5
I4
ssV65fl56
p832
(dp833
g3
I3
sg4
I0
sg5
I0
ssV2v8yzj
p834
(dp835
g3
I0
sg4
I0
sg5
I7
ssV65qh9q
p836
(dp837
g3
I1
sg4
I0
sg5
I0
ssV65h3cb
p838
(dp839
g3
I2
sg4
I0
sg5
I0
ssV64em11
p840
(dp841
g3
I0
sg4
I0
sg5
I0
ssV65jsu6
p842
(dp843
g3
I1
sg4
I0
sg5
I0
ssV66cruq
p844
(dp845
g3
I0
sg4
I0
sg5
I0
ssV65relb
p846
(dp847
g3
I3
sg4
I0
sg5
I0
ssV65l881
p848
(dp849
g3
I9
sg4
I0
sg5
I10
ssV1hxd7e
p850
(dp851
g3
I0
sg4
I0
sg5
I2
ssV65vdh3
p852
(dp853
g3
I10
sg4
I0
sg5
I1
ssV65e66k
p854
(dp855
g3
I1
sg4
I0
sg5
I1
ssV65jzyx
p856
(dp857
g3
I2
sg4
I0
sg5
I0
ssV65cbxu
p858
(dp859
g3
I3
sg4
I0
sg5
I21
ssV65tiyo
p860
(dp861
g3
I0
sg4
I0
sg5
I8
ssV65f1zm
p862
(dp863
g3
I0
sg4
I0
sg5
I17
ssV66jzws
p864
(dp865
g3
I0
sg4
I0
sg5
I3
ssV65q0bg
p866
(dp867
g3
I0
sg4
I0
sg5
I6
ssV1h9qy4
p868
(dp869
g3
I9
sg4
I0
sg5
I106
ssV65t68u
p870
(dp871
g3
I3
sg4
I0
sg5
I0
ssV646x4g
p872
(dp873
g3
I3
sg4
I0
sg5
I42
ssV65t467
p874
(dp875
g3
I0
sg4
I0
sg5
I1
ssV65pjle
p876
(dp877
g3
I1
sg4
I0
sg5
I0
ssV66spra
p878
(dp879
g3
I2
sg4
I0
sg5
I9
ssV1imi9p
p880
(dp881
g3
I2
sg4
I0
sg5
I13
ssVxkbih
p882
(dp883
g3
I2
sg4
I0
sg5
I0
ssV65gkv7
p884
(dp885
g3
I0
sg4
I0
sg5
I2
ssV62lrc6
p886
(dp887
g3
I0
sg4
I0
sg5
I6
ssV63xz5o
p888
(dp889
g3
I3
sg4
I0
sg5
I14
ssV63pfs5
p890
(dp891
g3
I0
sg4
I0
sg5
I0
ssV65vdf8
p892
(dp893
g3
I2
sg4
I0
sg5
I10
ssV653h9k
p894
(dp895
g3
I0
sg4
I0
sg5
I4
ssV63ytrp
p896
(dp897
g3
I1
sg4
I0
sg5
I22
ssV64q2hn
p898
(dp899
g3
I7
sg4
I0
sg5
I153
ssV65ppz6
p900
(dp901
g3
I4
sg4
I0
sg5
I6
ssV65mlio
p902
(dp903
g3
I0
sg4
I0
sg5
I13
ssV65momi
p904
(dp905
g3
I2
sg4
I0
sg5
I0
ssV65hv1s
p906
(dp907
g3
I5
sg4
I0
sg5
I6
ssV65i43r
p908
(dp909
g3
I0
sg4
I0
sg5
I0
ssV1hbc4v
p910
(dp911
g3
I0
sg4
I0
sg5
I2
ssV2v769c
p912
(dp913
g3
I1
sg4
I0
sg5
I29
ssV2v1vzy
p914
(dp915
g3
I0
sg4
I0
sg5
I0
ssV65pnb6
p916
(dp917
g3
I1
sg4
I0
sg5
I0
ssV1hwh5s
p918
(dp919
g3
I0
sg4
I0
sg5
I17
ssV62ptke
p920
(dp921
g3
I1
sg4
I0
sg5
I5
ssV63u1or
p922
(dp923
g3
I1
sg4
I0
sg5
I3
ssV6432a1
p924
(dp925
g3
I0
sg4
I0
sg5
I1
ssV65ovmq
p926
(dp927
g3
I0
sg4
I0
sg5
I3
ssV65twug
p928
(dp929
g3
I4
sg4
I0
sg5
I2
ssV2vbnfp
p930
(dp931
g3
I0
sg4
I0
sg5
I5
ssV2v81j8
p932
(dp933
g3
I0
sg4
I0
sg5
I0
ssV65f9fw
p934
(dp935
g3
I0
sg4
I0
sg5
I2
ssV65ihd8
p936
(dp937
g3
I5
sg4
I0
sg5
I6
ssV65hgbv
p938
(dp939
g3
I1
sg4
I0
sg5
I1
ssV6730js
p940
(dp941
g3
I0
sg4
I0
sg5
I2
ssV65otqs
p942
(dp943
g3
I1
sg4
I0
sg5
I2
ssV65mf5r
p944
(dp945
g3
I2
sg4
I0
sg5
I4
ssV65n522
p946
(dp947
g3
I2
sg4
I0
sg5
I0
ssV65ql3m
p948
(dp949
g3
I7
sg4
I0
sg5
I4
ssV65vlv9
p950
(dp951
g3
I1
sg4
I0
sg5
I0
ssV62hmy2
p952
(dp953
g3
I0
sg4
I0
sg5
I4
ssV2v8kzx
p954
(dp955
g3
I0
sg4
I0
sg5
I1
ssV2vb38x
p956
(dp957
g3
I64
sg4
I0
sg5
I1615
ssV65s5o5
p958
(dp959
g3
I0
sg4
I0
sg5
I3
ssV65v9jc
p960
(dp961
g3
I5
sg4
I0
sg5
I3
ssV65f27f
p962
(dp963
g3
I0
sg4
I0
sg5
I3
ssV1idisg
p964
(dp965
g3
I2
sg4
I0
sg5
I8
ssV65tcwg
p966
(dp967
g3
I5
sg4
I0
sg5
I21
ssV1in2nx
p968
(dp969
g3
I0
sg4
I0
sg5
I0
ssV65ze0w
p970
(dp971
g3
I0
sg4
I0
sg5
I1
ssV1h9o4o
p972
(dp973
g3
I4
sg4
I0
sg5
I74
ssV63q5xj
p974
(dp975
g3
I0
sg4
I0
sg5
I5
ssV65mg85
p976
(dp977
g3
I7
sg4
I0
sg5
I57
ssV64htuy
p978
(dp979
g3
I1
sg4
I0
sg5
I0
ssV66y0r5
p980
(dp981
g3
I0
sg4
I0
sg5
I11
ssV65nezg
p982
(dp983
g3
I1
sg4
I0
sg5
I1
ssV64u5fb
p984
(dp985
g3
I0
sg4
I0
sg5
I0
ssV65jh5o
p986
(dp987
g3
I1
sg4
I0
sg5
I1
ssV65j5mc
p988
(dp989
g3
I0
sg4
I0
sg5
I11
ssV1i09jh
p990
(dp991
g3
I6
sg4
I0
sg5
I41
ssVxke0w
p992
(dp993
g3
I11
sg4
I0
sg5
I60
ssV65ljm3
p994
(dp995
g3
I3
sg4
I0
sg5
I6
ssV659f3x
p996
(dp997
g3
I13
sg4
I0
sg5
I578
ssV65ose2
p998
(dp999
g3
I0
sg4
I0
sg5
I2
ssV2v4j24
p1000
(dp1001
g3
I2
sg4
I0
sg5
I4
ssV659bsa
p1002
(dp1003
g3
I1
sg4
I0
sg5
I15
ssV65iq4y
p1004
(dp1005
g3
I0
sg4
I0
sg5
I1
ssV65ja10
p1006
(dp1007
g3
I1
sg4
I0
sg5
I6
ssV65h8e4
p1008
(dp1009
g3
I3
sg4
I0
sg5
I3
ssV65us37
p1010
(dp1011
g3
I7
sg4
I0
sg5
I3
ssV65wj73
p1012
(dp1013
g3
I13
sg4
I0
sg5
I177
ssV65nczm
p1014
(dp1015
g3
I3
sg4
I0
sg5
I0
ssV64inq5
p1016
(dp1017
g3
I2
sg4
I0
sg5
I5
ssV66z8rj
p1018
(dp1019
g3
I2
sg4
I0
sg5
I9
ssV65rfc2
p1020
(dp1021
g3
I0
sg4
I0
sg5
I1
ssV64ecze
p1022
(dp1023
g3
I0
sg4
I0
sg5
I6
ssV65v9uu
p1024
(dp1025
g3
I1
sg4
I0
sg5
I0
ssV65h7qh
p1026
(dp1027
g3
I2
sg4
I0
sg5
I4
ssV63eezs
p1028
(dp1029
g3
I3
sg4
I0
sg5
I58
ssV66mhmj
p1030
(dp1031
g3
I0
sg4
I0
sg5
I9
ssV65twg5
p1032
(dp1033
g3
I1
sg4
I0
sg5
I0
ssV2v1ocu
p1034
(dp1035
g3
I0
sg4
I0
sg5
I11
ssV65kwhr
p1036
(dp1037
g3
I0
sg4
I0
sg5
I1
ssV670ded
p1038
(dp1039
g3
I0
sg4
I0
sg5
I1
ssV62xlyu
p1040
(dp1041
g3
I0
sg4
I0
sg5
I1
ssV65vhtn
p1042
(dp1043
g3
I1
sg4
I0
sg5
I5
ssV6584qp
p1044
(dp1045
g3
I0
sg4
I0
sg5
I4
ssV65qjhz
p1046
(dp1047
g3
I0
sg4
I0
sg5
I10
ssV3exa86
p1048
(dp1049
g3
I0
sg4
I0
sg5
I1
ssV6322jk
p1050
(dp1051
g3
I0
sg4
I0
sg5
I7
ssV63twot
p1052
(dp1053
g3
I2
sg4
I0
sg5
I4
ssV65w3yn
p1054
(dp1055
g3
I1
sg4
I0
sg5
I1
ssV672djh
p1056
(dp1057
g3
I21
sg4
I0
sg5
I477
ssV65v223
p1058
(dp1059
g3
I0
sg4
I0
sg5
I3
ssV65l3ix
p1060
(dp1061
g3
I5
sg4
I0
sg5
I5
ssV65sb09
p1062
(dp1063
g3
I16
sg4
I0
sg5
I204
ssV1hqype
p1064
(dp1065
g3
I0
sg4
I0
sg5
I7
ssV65j6u9
p1066
(dp1067
g3
I0
sg4
I0
sg5
I1
ssV65zcw5
p1068
(dp1069
g3
I1
sg4
I0
sg5
I14
ssV66aauw
p1070
(dp1071
g3
I4
sg4
I0
sg5
I64
ssV6588kn
p1072
(dp1073
g3
I6
sg4
I0
sg5
I63
ssV65p78x
p1074
(dp1075
g3
I0
sg4
I0
sg5
I3
ssV665xq1
p1076
(dp1077
g3
I0
sg4
I0
sg5
I4
ssV65kci7
p1078
(dp1079
g3
I0
sg4
I0
sg5
I0
ssV66k579
p1080
(dp1081
g3
I0
sg4
I0
sg5
I6
ssV63ta8f
p1082
(dp1083
g3
I10
sg4
I0
sg5
I39
ssV1hkiy3
p1084
(dp1085
g3
I0
sg4
I0
sg5
I0
ssV64luvu
p1086
(dp1087
g3
I1
sg4
I0
sg5
I5
ssV65jeif
p1088
(dp1089
g3
I0
sg4
I0
sg5
I1
ssV62p3dg
p1090
(dp1091
g3
I0
sg4
I0
sg5
I24
ssV66w98o
p1092
(dp1093
g3
I2
sg4
I0
sg5
I9
ssV65o3uh
p1094
(dp1095
g3
I2
sg4
I0
sg5
I0
ssV65wf7j
p1096
(dp1097
g3
I0
sg4
I0
sg5
I0
ssV65h8wz
p1098
(dp1099
g3
I4
sg4
I0
sg5
I31
ssV65vyej
p1100
(dp1101
g3
I0
sg4
I0
sg5
I0
ssV65kric
p1102
(dp1103
g3
I6
sg4
I0
sg5
I0
ssV65phfh
p1104
(dp1105
g3
I0
sg4
I0
sg5
I0
ssV65v4p5
p1106
(dp1107
g3
I11
sg4
I0
sg5
I399
ssV63hfyu
p1108
(dp1109
g3
I0
sg4
I0
sg5
I1
ssV639a8y
p1110
(dp1111
g3
I1
sg4
I0
sg5
I5
ssV2v4kij
p1112
(dp1113
g3
I0
sg4
I0
sg5
I0
ssV65qgno
p1114
(dp1115
g3
I0
sg4
I0
sg5
I2
ssV65zi47
p1116
(dp1117
g3
I0
sg4
I0
sg5
I19
ssV64aw52
p1118
(dp1119
g3
I5
sg4
I0
sg5
I27
ssV65qdl6
p1120
(dp1121
g3
I0
sg4
I0
sg5
I1
ssV63kw8c
p1122
(dp1123
g3
I3
sg4
I0
sg5
I12
ssV65ruis
p1124
(dp1125
g3
I12
sg4
I0
sg5
I243
ssV65i4ig
p1126
(dp1127
g3
I0
sg4
I0
sg5
I1
ssV65s8xh
p1128
(dp1129
g3
I1
sg4
I0
sg5
I1
ssV62svhl
p1130
(dp1131
g3
I3
sg4
I0
sg5
I0
ssV63paj9
p1132
(dp1133
g3
I0
sg4
I0
sg5
I7
ssV65pf8m
p1134
(dp1135
g3
I0
sg4
I0
sg5
I1
ssV65kgmk
p1136
(dp1137
g3
I16
sg4
I0
sg5
I12
ssV65u2k5
p1138
(dp1139
g3
I1
sg4
I0
sg5
I0
ssVxknge
p1140
(dp1141
g3
I10
sg4
I0
sg5
I128
ssV62nx5g
p1142
(dp1143
g3
I2
sg4
I0
sg5
I30
ssV667sy1
p1144
(dp1145
g3
I0
sg4
I0
sg5
I10
ssV64l2dy
p1146
(dp1147
g3
I0
sg4
I0
sg5
I2
ssV64lyxz
p1148
(dp1149
g3
I0
sg4
I0
sg5
I4
ssV65koq8
p1150
(dp1151
g3
I1
sg4
I0
sg5
I0
ssV63u0ei
p1152
(dp1153
g3
I6
sg4
I0
sg5
I177
ssV66jrh8
p1154
(dp1155
g3
I0
sg4
I0
sg5
I26
ssV65hg8g
p1156
(dp1157
g3
I2
sg4
I0
sg5
I2
ssV65k006
p1158
(dp1159
g3
I0
sg4
I0
sg5
I0
ssV63azn7
p1160
(dp1161
g3
I0
sg4
I0
sg5
I1
ssV65w6a4
p1162
(dp1163
g3
I2
sg4
I0
sg5
I1
ssV2v4wgf
p1164
(dp1165
g3
I2
sg4
I0
sg5
I8
ssV65m5qp
p1166
(dp1167
g3
I3
sg4
I0
sg5
I0
ssV6640a6
p1168
(dp1169
g3
I1
sg4
I0
sg5
I60
ssV65utbf
p1170
(dp1171
g3
I2
sg4
I0
sg5
I41
ssV1hbvcm
p1172
(dp1173
g3
I0
sg4
I0
sg5
I1
ssV1d68dp
p1174
(dp1175
g3
I0
sg4
I0
sg5
I1
ssV65w98t
p1176
(dp1177
g3
I33
sg4
I0
sg5
I485
ssV65n9eg
p1178
(dp1179
g3
I3
sg4
I0
sg5
I10
ssV63a1to
p1180
(dp1181
g3
I0
sg4
I0
sg5
I1
ssV65ev8c
p1182
(dp1183
g3
I2
sg4
I0
sg5
I5
ssV65w9zo
p1184
(dp1185
g3
I1
sg4
I0
sg5
I6
ssV65mfrn
p1186
(dp1187
g3
I5
sg4
I0
sg5
I3
ssV648bf8
p1188
(dp1189
g3
I0
sg4
I0
sg5
I1
ssVxjvg2
p1190
(dp1191
g3
I9
sg4
I0
sg5
I66
ssV65pop3
p1192
(dp1193
g3
I0
sg4
I0
sg5
I1
ssV65s8x2
p1194
(dp1195
g3
I4
sg4
I0
sg5
I0
ssV65pilv
p1196
(dp1197
g3
I2
sg4
I0
sg5
I7
ssV64tx6a
p1198
(dp1199
g3
I2
sg4
I0
sg5
I8
ssV2vbtu0
p1200
(dp1201
g3
I0
sg4
I0
sg5
I0
ssV65j84g
p1202
(dp1203
g3
I5
sg4
I0
sg5
I54
ssV660qzr
p1204
(dp1205
g3
I3
sg4
I0
sg5
I10
ssV65hayv
p1206
(dp1207
g3
I1
sg4
I0
sg5
I20
ssV65q6t2
p1208
(dp1209
g3
I0
sg4
I0
sg5
I1
ssV656s7q
p1210
(dp1211
g3
I2
sg4
I0
sg5
I12
ssV65etts
p1212
(dp1213
g3
I0
sg4
I0
sg5
I1
ssV65q4fr
p1214
(dp1215
g3
I0
sg4
I0
sg5
I3
ssV65pyhg
p1216
(dp1217
g3
I0
sg4
I0
sg5
I0
ssV66kmpn
p1218
(dp1219
g3
I24
sg4
I0
sg5
I5
ssV62hmg6
p1220
(dp1221
g3
I0
sg4
I0
sg5
I5
ssV65ltel
p1222
(dp1223
g3
I0
sg4
I0
sg5
I5
ssV65o5kl
p1224
(dp1225
g3
I20
sg4
I0
sg5
I394
ssV63n76q
p1226
(dp1227
g3
I0
sg4
I0
sg5
I9
ssV66x4p4
p1228
(dp1229
g3
I0
sg4
I0
sg5
I5
ssV62fqhj
p1230
(dp1231
g3
I0
sg4
I0
sg5
I1
ssV65ju2t
p1232
(dp1233
g3
I0
sg4
I0
sg5
I4
ssV6720k1
p1234
(dp1235
g3
I1
sg4
I0
sg5
I11
ssV1i3nz7
p1236
(dp1237
g3
I7
sg4
I0
sg5
I41
ssV65t3ka
p1238
(dp1239
g3
I0
sg4
I0
sg5
I1
ssV65kg83
p1240
(dp1241
g3
I2
sg4
I0
sg5
I0
ssV65ktvh
p1242
(dp1243
g3
I0
sg4
I0
sg5
I1
ssV65goac
p1244
(dp1245
g3
I5
sg4
I0
sg5
I27
ssV642zkt
p1246
(dp1247
g3
I0
sg4
I0
sg5
I0
ssV653dri
p1248
(dp1249
g3
I1
sg4
I0
sg5
I0
ssV63flw8
p1250
(dp1251
g3
I0
sg4
I0
sg5
I1
ssV65r1of
p1252
(dp1253
g3
I2
sg4
I0
sg5
I4
ssV65j2hc
p1254
(dp1255
g3
I0
sg4
I0
sg5
I0
ssV66wr8j
p1256
(dp1257
g3
I8
sg4
I0
sg5
I24
ssV666yfp
p1258
(dp1259
g3
I0
sg4
I0
sg5
I1
ssV66z7zg
p1260
(dp1261
g3
I2
sg4
I0
sg5
I13
ssVxkbkd
p1262
(dp1263
g3
I0
sg4
I0
sg5
I0
ssV65tnja
p1264
(dp1265
g3
I0
sg4
I0
sg5
I5
ssV65bh4h
p1266
(dp1267
g3
I0
sg4
I0
sg5
I1
ssV65vszo
p1268
(dp1269
g3
I1
sg4
I0
sg5
I0
ssV65pjks
p1270
(dp1271
g3
I0
sg4
I0
sg5
I1
ssV65remo
p1272
(dp1273
g3
I0
sg4
I0
sg5
I3
ssV66by4a
p1274
(dp1275
g3
I0
sg4
I0
sg5
I0
ssV65tvm4
p1276
(dp1277
g3
I1
sg4
I0
sg5
I0
ssV65s4va
p1278
(dp1279
g3
I4
sg4
I0
sg5
I34
ssV65so8g
p1280
(dp1281
g3
I0
sg4
I0
sg5
I0
ssV65fsr8
p1282
(dp1283
g3
I2
sg4
I0
sg5
I6
ssV65tljv
p1284
(dp1285
g3
I0
sg4
I0
sg5
I28
ssV62e8ji
p1286
(dp1287
g3
I5
sg4
I0
sg5
I2
ssV65kvf2
p1288
(dp1289
g3
I0
sg4
I0
sg5
I1
ssV65gwg9
p1290
(dp1291
g3
I7
sg4
I0
sg5
I4
ssV2v2po5
p1292
(dp1293
g3
I0
sg4
I0
sg5
I0
ssV65enfg
p1294
(dp1295
g3
I1
sg4
I0
sg5
I1
ssV65fe5y
p1296
(dp1297
g3
I2
sg4
I0
sg5
I11
ssV1hnt1o
p1298
(dp1299
g3
I0
sg4
I0
sg5
I0
ssV65pr03
p1300
(dp1301
g3
I2
sg4
I0
sg5
I0
ssV63glr8
p1302
(dp1303
g3
I0
sg4
I0
sg5
I1
ssV65gb7e
p1304
(dp1305
g3
I0
sg4
I0
sg5
I1
ssV65q2h3
p1306
(dp1307
g3
I45
sg4
I0
sg5
I1941
ssV65uhd7
p1308
(dp1309
g3
I0
sg4
I0
sg5
I7
ssV65xhkr
p1310
(dp1311
g3
I4
sg4
I0
sg5
I355
ssV66hywy
p1312
(dp1313
g3
I0
sg4
I0
sg5
I1
ssV2v7jef
p1314
(dp1315
g3
I0
sg4
I0
sg5
I5
ssV62hg3e
p1316
(dp1317
g3
I0
sg4
I0
sg5
I0
ssV2v8gsg
p1318
(dp1319
g3
I1
sg4
I0
sg5
I10
ssV65fnti
p1320
(dp1321
g3
I0
sg4
I0
sg5
I13
ssV63vzvb
p1322
(dp1323
g3
I0
sg4
I0
sg5
I4
ssV2vd62r
p1324
(dp1325
g3
I0
sg4
I0
sg5
I3
ssV65jimg
p1326
(dp1327
g3
I0
sg4
I0
sg5
I1
ssV65w25e
p1328
(dp1329
g3
I2
sg4
I0
sg5
I5
ssV65ep4x
p1330
(dp1331
g3
I8
sg4
I0
sg5
I0
ssV64mtb1
p1332
(dp1333
g3
I0
sg4
I0
sg5
I1
ssV65gjdk
p1334
(dp1335
g3
I0
sg4
I0
sg5
I0
ssV2v4ch7
p1336
(dp1337
g3
I0
sg4
I0
sg5
I1
ssV66ykta
p1338
(dp1339
g3
I3
sg4
I0
sg5
I7
ssV65pxhy
p1340
(dp1341
g3
I0
sg4
I0
sg5
I6
ssV65pm9y
p1342
(dp1343
g3
I0
sg4
I0
sg5
I1
ssV65gv9n
p1344
(dp1345
g3
I4
sg4
I0
sg5
I0
ssV65fy2u
p1346
(dp1347
g3
I0
sg4
I0
sg5
I0
ssV1inxq4
p1348
(dp1349
g3
I4
sg4
I0
sg5
I139
ssV65j7ri
p1350
(dp1351
g3
I4
sg4
I0
sg5
I48
ssV65h0ci
p1352
(dp1353
g3
I0
sg4
I0
sg5
I3
ssV635iut
p1354
(dp1355
g3
I1
sg4
I0
sg5
I23
ssV65nysh
p1356
(dp1357
g3
I0
sg4
I0
sg5
I1
ssV66uj98
p1358
(dp1359
g3
I0
sg4
I0
sg5
I2
ssV65db9j
p1360
(dp1361
g3
I0
sg4
I0
sg5
I26
ssV1epun7
p1362
(dp1363
g3
I5
sg4
I0
sg5
I452
ssV65ei25
p1364
(dp1365
g3
I0
sg4
I0
sg5
I3
ssV65tn8b
p1366
(dp1367
g3
I0
sg4
I0
sg5
I0
ssV65vfqh
p1368
(dp1369
g3
I10
sg4
I0
sg5
I5
ssV65insl
p1370
(dp1371
g3
I0
sg4
I0
sg5
I0
ssV65pfgl
p1372
(dp1373
g3
I0
sg4
I0
sg5
I0
ssV65iigi
p1374
(dp1375
g3
I2
sg4
I0
sg5
I1
ssV65tcf4
p1376
(dp1377
g3
I2
sg4
I0
sg5
I0
ssV1hgmmt
p1378
(dp1379
g3
I2
sg4
I0
sg5
I27
ssV64dmco
p1380
(dp1381
g3
I3
sg4
I0
sg5
I8
ssV65fuat
p1382
(dp1383
g3
I15
sg4
I0
sg5
I357
ssV65spfa
p1384
(dp1385
g3
I2
sg4
I0
sg5
I2
ssV643887
p1386
(dp1387
g3
I0
sg4
I0
sg5
I1
ssV65fqk3
p1388
(dp1389
g3
I0
sg4
I0
sg5
I2
ssV64jaub
p1390
(dp1391
g3
I2
sg4
I0
sg5
I64
ssV65u410
p1392
(dp1393
g3
I1
sg4
I0
sg5
I0
ssV1f137p
p1394
(dp1395
g3
I3
sg4
I0
sg5
I89
ssV65hbwm
p1396
(dp1397
g3
I0
sg4
I0
sg5
I0
ssV62thzc
p1398
(dp1399
g3
I0
sg4
I0
sg5
I0
ssV65qvaj
p1400
(dp1401
g3
I0
sg4
I0
sg5
I1
ssV1evpyx
p1402
(dp1403
g3
I1
sg4
I0
sg5
I20
ssV65tyvq
p1404
(dp1405
g3
I4
sg4
I0
sg5
I2
ssV65faw9
p1406
(dp1407
g3
I2
sg4
I0
sg5
I0
ssVxk0pb
p1408
(dp1409
g3
I0
sg4
I0
sg5
I0
ssV64xnl5
p1410
(dp1411
g3
I2
sg4
I0
sg5
I5
ssV65jpu4
p1412
(dp1413
g3
I1
sg4
I0
sg5
I2
ssV6445bn
p1414
(dp1415
g3
I1
sg4
I0
sg5
I5
ssV65xycx
p1416
(dp1417
g3
I0
sg4
I0
sg5
I7
ssV2vb4uo
p1418
(dp1419
g3
I0
sg4
I0
sg5
I2
ssV640bxh
p1420
(dp1421
g3
I0
sg4
I0
sg5
I4
ssV65tzh4
p1422
(dp1423
g3
I2
sg4
I0
sg5
I2
ssV65iog0
p1424
(dp1425
g3
I4
sg4
I0
sg5
I0
ssV65zf88
p1426
(dp1427
g3
I2
sg4
I0
sg5
I1
ssV65rbnp
p1428
(dp1429
g3
I3
sg4
I0
sg5
I0
ssV6375d6
p1430
(dp1431
g3
I1
sg4
I0
sg5
I10
ssV65gla1
p1432
(dp1433
g3
I1
sg4
I0
sg5
I3
ssV62djh4
p1434
(dp1435
g3
I1
sg4
I0
sg5
I19
ssV65gew2
p1436
(dp1437
g3
I1
sg4
I0
sg5
I34
ssV65up5t
p1438
(dp1439
g3
I0
sg4
I0
sg5
I3
ssV65sa4a
p1440
(dp1441
g3
I0
sg4
I0
sg5
I4
ssV64c5lt
p1442
(dp1443
g3
I0
sg4
I0
sg5
I15
ssV65lan4
p1444
(dp1445
g3
I0
sg4
I0
sg5
I8
ssV661dm9
p1446
(dp1447
g3
I1
sg4
I0
sg5
I2
ssV1h852z
p1448
(dp1449
g3
I0
sg4
I0
sg5
I6
ssV63shs9
p1450
(dp1451
g3
I0
sg4
I0
sg5
I11
ssV661dm0
p1452
(dp1453
g3
I2
sg4
I0
sg5
I0
ssV6331q3
p1454
(dp1455
g3
I4
sg4
I0
sg5
I39
ssV64o7ll
p1456
(dp1457
g3
I4
sg4
I0
sg5
I6
ssV65evg6
p1458
(dp1459
g3
I2
sg4
I0
sg5
I7
ssV65mi1a
p1460
(dp1461
g3
I1
sg4
I0
sg5
I0
ssV64lo7u
p1462
(dp1463
g3
I0
sg4
I0
sg5
I9
ssV63sxou
p1464
(dp1465
g3
I1
sg4
I0
sg5
I7
ssV65jbxq
p1466
(dp1467
g3
I0
sg4
I0
sg5
I0
ssV64q34q
p1468
(dp1469
g3
I4
sg4
I0
sg5
I38
ssV65vm1j
p1470
(dp1471
g3
I0
sg4
I0
sg5
I2
ssV65hq4h
p1472
(dp1473
g3
I2
sg4
I0
sg5
I2
ssV65qk3j
p1474
(dp1475
g3
I4
sg4
I0
sg5
I37
ssV64n2j1
p1476
(dp1477
g3
I1
sg4
I0
sg5
I9
ssV66q9q7
p1478
(dp1479
g3
I52
sg4
I0
sg5
I2712
ssV66ttqh
p1480
(dp1481
g3
I1
sg4
I0
sg5
I0
ssV65hciz
p1482
(dp1483
g3
I0
sg4
I0
sg5
I2
ssV65noa1
p1484
(dp1485
g3
I0
sg4
I0
sg5
I3
ssV6735t6
p1486
(dp1487
g3
I0
sg4
I0
sg5
I2
ssV65m9oz
p1488
(dp1489
g3
I0
sg4
I0
sg5
I0
ssV65p7pg
p1490
(dp1491
g3
I3
sg4
I0
sg5
I19
ssV63o3m4
p1492
(dp1493
g3
I0
sg4
I0
sg5
I0
ssV65k7pm
p1494
(dp1495
g3
I17
sg4
I0
sg5
I1
ssV65u1ig
p1496
(dp1497
g3
I1
sg4
I0
sg5
I0
ssV64vlw3
p1498
(dp1499
g3
I0
sg4
I0
sg5
I0
ssV1hqldn
p1500
(dp1501
g3
I5
sg4
I0
sg5
I37
ssV64o7pj
p1502
(dp1503
g3
I0
sg4
I0
sg5
I2
ssV65v2eh
p1504
(dp1505
g3
I6
sg4
I0
sg5
I27
ssV65mf8q
p1506
(dp1507
g3
I0
sg4
I0
sg5
I5
ssV65tzhl
p1508
(dp1509
g3
I0
sg4
I0
sg5
I7
ssV65jxkt
p1510
(dp1511
g3
I0
sg4
I0
sg5
I3
ssV661ogb
p1512
(dp1513
g3
I0
sg4
I0
sg5
I10
ssV66gyae
p1514
(dp1515
g3
I10
sg4
I0
sg5
I41
ssV65h2hx
p1516
(dp1517
g3
I0
sg4
I0
sg5
I1
ssV65fiy0
p1518
(dp1519
g3
I0
sg4
I0
sg5
I1
ssV65gcl4
p1520
(dp1521
g3
I0
sg4
I0
sg5
I1
ssV2vjs5t
p1522
(dp1523
g3
I0
sg4
I0
sg5
I1
ssV62od1p
p1524
(dp1525
g3
I1
sg4
I0
sg5
I28
ssV65r4l3
p1526
(dp1527
g3
I4
sg4
I0
sg5
I3
ssV65k0vg
p1528
(dp1529
g3
I2
sg4
I0
sg5
I11
ssV1g373z
p1530
(dp1531
g3
I2
sg4
I0
sg5
I18
ssV65tn6i
p1532
(dp1533
g3
I0
sg4
I0
sg5
I0
ssV65izxo
p1534
(dp1535
g3
I1
sg4
I0
sg5
I2
ssV65prwf
p1536
(dp1537
g3
I1
sg4
I0
sg5
I1
ssV65mjjc
p1538
(dp1539
g3
I0
sg4
I0
sg5
I1
ssV653kwt
p1540
(dp1541
g3
I12
sg4
I0
sg5
I29
ssV1h1od4
p1542
(dp1543
g3
I9
sg4
I0
sg5
I115
ssV66syyq
p1544
(dp1545
g3
I0
sg4
I0
sg5
I1
ssV65w56o
p1546
(dp1547
g3
I3
sg4
I0
sg5
I6
ssV65t9fr
p1548
(dp1549
g3
I1
sg4
I0
sg5
I1
ssV2v1wmo
p1550
(dp1551
g3
I0
sg4
I0
sg5
I0
ssV65puco
p1552
(dp1553
g3
I15
sg4
I0
sg5
I346
ssV65yf2i
p1554
(dp1555
g3
I1
sg4
I0
sg5
I10
ssV1idn64
p1556
(dp1557
g3
I5
sg4
I0
sg5
I14
ssV65ovna
p1558
(dp1559
g3
I0
sg4
I0
sg5
I0
ssV2vcioa
p1560
(dp1561
g3
I0
sg4
I0
sg5
I1
ssV65murr
p1562
(dp1563
g3
I7
sg4
I0
sg5
I74
ssV1igl49
p1564
(dp1565
g3
I3
sg4
I0
sg5
I53
ssV65stj3
p1566
(dp1567
g3
I0
sg4
I0
sg5
I0
ssV65nauw
p1568
(dp1569
g3
I1
sg4
I0
sg5
I7
ssV668zby
p1570
(dp1571
g3
I1
sg4
I0
sg5
I9
ssV66nkxq
p1572
(dp1573
g3
I0
sg4
I0
sg5
I0
ssV65jjmv
p1574
(dp1575
g3
I0
sg4
I0
sg5
I0
ssV65ptw3
p1576
(dp1577
g3
I3
sg4
I0
sg5
I98
ssV65qfcy
p1578
(dp1579
g3
I0
sg4
I0
sg5
I3
ssV65pw6u
p1580
(dp1581
g3
I3
sg4
I0
sg5
I1
ssV64t5s8
p1582
(dp1583
g3
I0
sg4
I0
sg5
I0
ssV65l1dv
p1584
(dp1585
g3
I0
sg4
I0
sg5
I0
ssV65gtom
p1586
(dp1587
g3
I2
sg4
I0
sg5
I0
ssV666akf
p1588
(dp1589
g3
I0
sg4
I0
sg5
I3
ssV65v259
p1590
(dp1591
g3
I1
sg4
I0
sg5
I2
ssV66e8i0
p1592
(dp1593
g3
I0
sg4
I0
sg5
I3
ssV62eud9
p1594
(dp1595
g3
I1
sg4
I0
sg5
I1
ssV65fgko
p1596
(dp1597
g3
I2
sg4
I0
sg5
I18
ssV65ojxa
p1598
(dp1599
g3
I44
sg4
I0
sg5
I1929
ssV65hbet
p1600
(dp1601
g3
I0
sg4
I0
sg5
I2
ssV66sfyc
p1602
(dp1603
g3
I0
sg4
I0
sg5
I40
ssV65kb01
p1604
(dp1605
g3
I0
sg4
I0
sg5
I7
ssV65peqk
p1606
(dp1607
g3
I0
sg4
I0
sg5
I0
ssV66lwf7
p1608
(dp1609
g3
I1
sg4
I0
sg5
I9
ssV65otnd
p1610
(dp1611
g3
I1
sg4
I0
sg5
I0
ssV64hmsz
p1612
(dp1613
g3
I0
sg4
I0
sg5
I13
ssV65p57f
p1614
(dp1615
g3
I0
sg4
I0
sg5
I16
ssV65rjjo
p1616
(dp1617
g3
I2
sg4
I0
sg5
I18
ssV66bj1e
p1618
(dp1619
g3
I0
sg4
I0
sg5
I8
ssV65ivp6
p1620
(dp1621
g3
I0
sg4
I0
sg5
I3
ssV65wpn9
p1622
(dp1623
g3
I4
sg4
I0
sg5
I3
ssV65n5t9
p1624
(dp1625
g3
I8
sg4
I0
sg5
I0
ssV65lrr7
p1626
(dp1627
g3
I1
sg4
I0
sg5
I27
ssV62gvnl
p1628
(dp1629
g3
I1
sg4
I0
sg5
I2
ssV65rysb
p1630
(dp1631
g3
I0
sg4
I0
sg5
I0
ssV661czw
p1632
(dp1633
g3
I1
sg4
I0
sg5
I3
ssV65kj2f
p1634
(dp1635
g3
I1
sg4
I0
sg5
I9
ssV65fjca
p1636
(dp1637
g3
I1
sg4
I0
sg5
I10
ssV65qoa0
p1638
(dp1639
g3
I1
sg4
I0
sg5
I11
ssV64wyi7
p1640
(dp1641
g3
I0
sg4
I0
sg5
I1
ssV1hq8qo
p1642
(dp1643
g3
I2
sg4
I0
sg5
I236
ssV63dfg7
p1644
(dp1645
g3
I15
sg4
I0
sg5
I580
ssV65vvch
p1646
(dp1647
g3
I6
sg4
I0
sg5
I7
ssV643u3c
p1648
(dp1649
g3
I5
sg4
I0
sg5
I6
ssV65ifoz
p1650
(dp1651
g3
I2
sg4
I0
sg5
I10
ssV65s2fl
p1652
(dp1653
g3
I2
sg4
I0
sg5
I0
ssV65q421
p1654
(dp1655
g3
I4
sg4
I0
sg5
I0
ssV1iexda
p1656
(dp1657
g3
I1
sg4
I0
sg5
I9
ssV65yqaz
p1658
(dp1659
g3
I4
sg4
I0
sg5
I3
ssV65kmlb
p1660
(dp1661
g3
I1
sg4
I0
sg5
I28
ssVxkfe5
p1662
(dp1663
g3
I28
sg4
I0
sg5
I364
ssV65ho9v
p1664
(dp1665
g3
I1
sg4
I0
sg5
I0
ssV65jkxn
p1666
(dp1667
g3
I2
sg4
I0
sg5
I4
ssV65fubm
p1668
(dp1669
g3
I0
sg4
I0
sg5
I2
ssV65kmlr
p1670
(dp1671
g3
I2
sg4
I0
sg5
I7
ssV632ngd
p1672
(dp1673
g3
I1
sg4
I0
sg5
I9
ssV646hau
p1674
(dp1675
g3
I14
sg4
I0
sg5
I222
ssV64my7f
p1676
(dp1677
g3
I1
sg4
I0
sg5
I2
ssV65h0p3
p1678
(dp1679
g3
I2
sg4
I0
sg5
I6
ssV64o778
p1680
(dp1681
g3
I0
sg4
I0
sg5
I2
ssV66fevl
p1682
(dp1683
g3
I0
sg4
I0
sg5
I17
ssV64fnp4
p1684
(dp1685
g3
I1
sg4
I0
sg5
I4
ssV65euzq
p1686
(dp1687
g3
I1
sg4
I0
sg5
I3
ssV65i5r6
p1688
(dp1689
g3
I0
sg4
I0
sg5
I0
ssV65pa64
p1690
(dp1691
g3
I0
sg4
I0
sg5
I2
ssV66w5qv
p1692
(dp1693
g3
I2
sg4
I0
sg5
I15
ssV64pdsq
p1694
(dp1695
g3
I2
sg4
I0
sg5
I15
ssV65rkxj
p1696
(dp1697
g3
I0
sg4
I0
sg5
I23
ssV64vs5u
p1698
(dp1699
g3
I4
sg4
I0
sg5
I67
ssV65ki9j
p1700
(dp1701
g3
I0
sg4
I0
sg5
I3
ssV65uzje
p1702
(dp1703
g3
I1
sg4
I0
sg5
I6
ssV65p79e
p1704
(dp1705
g3
I1
sg4
I0
sg5
I5
ssV66zowd
p1706
(dp1707
g3
I1
sg4
I0
sg5
I1
ssV630z7h
p1708
(dp1709
g3
I1
sg4
I0
sg5
I20
ssV63z1wu
p1710
(dp1711
g3
I8
sg4
I0
sg5
I35
ssV65mwll
p1712
(dp1713
g3
I1
sg4
I0
sg5
I4
ssV65w3f7
p1714
(dp1715
g3
I2
sg4
I0
sg5
I6
ssV65fnyi
p1716
(dp1717
g3
I2
sg4
I0
sg5
I43
ssV65irxg
p1718
(dp1719
g3
I20
sg4
I0
sg5
I317
ssV65rrq2
p1720
(dp1721
g3
I1
sg4
I0
sg5
I30
ssV63cq8e
p1722
(dp1723
g3
I2
sg4
I0
sg5
I3
ssV63nzju
p1724
(dp1725
g3
I2
sg4
I0
sg5
I13
ssV1bhznj
p1726
(dp1727
g3
I0
sg4
I0
sg5
I4
ssV1glf5z
p1728
(dp1729
g3
I8
sg4
I0
sg5
I30
ssV66bami
p1730
(dp1731
g3
I0
sg4
I0
sg5
I5
ssV62pi02
p1732
(dp1733
g3
I16
sg4
I0
sg5
I1130
ssV2v7hz0
p1734
(dp1735
g3
I1
sg4
I0
sg5
I15
ssV65fypm
p1736
(dp1737
g3
I1
sg4
I0
sg5
I5
ssV65ng9a
p1738
(dp1739
g3
I0
sg4
I0
sg5
I0
ssV65p5or
p1740
(dp1741
g3
I0
sg4
I0
sg5
I6
ssV65ov9l
p1742
(dp1743
g3
I2
sg4
I0
sg5
I2
ssV65gl42
p1744
(dp1745
g3
I0
sg4
I0
sg5
I0
ssV648a9v
p1746
(dp1747
g3
I2
sg4
I0
sg5
I5
ssV6494n5
p1748
(dp1749
g3
I0
sg4
I0
sg5
I1
ssV65sq7x
p1750
(dp1751
g3
I1
sg4
I0
sg5
I1
ssV644kpi
p1752
(dp1753
g3
I0
sg4
I0
sg5
I6
ssV64px2y
p1754
(dp1755
g3
I0
sg4
I0
sg5
I1
ssV654fdo
p1756
(dp1757
g3
I3
sg4
I0
sg5
I171
ssV65jmnu
p1758
(dp1759
g3
I0
sg4
I0
sg5
I0
ssV64zb2m
p1760
(dp1761
g3
I0
sg4
I0
sg5
I9
ssV644wni
p1762
(dp1763
g3
I3
sg4
I0
sg5
I19
ssV65rpmm
p1764
(dp1765
g3
I4
sg4
I0
sg5
I0
ssV66wigd
p1766
(dp1767
g3
I0
sg4
I0
sg5
I5
ssV1ie1tj
p1768
(dp1769
g3
I0
sg4
I0
sg5
I0
ssV65o22g
p1770
(dp1771
g3
I2
sg4
I0
sg5
I0
ssV1g4agg
p1772
(dp1773
g3
I11
sg4
I0
sg5
I69
ssV65tm0i
p1774
(dp1775
g3
I0
sg4
I0
sg5
I6
ssV65wmgn
p1776
(dp1777
g3
I4
sg4
I0
sg5
I0
ssV1ino85
p1778
(dp1779
g3
I1
sg4
I0
sg5
I33
ssV65g4tr
p1780
(dp1781
g3
I1
sg4
I0
sg5
I3
ssV2vj9h9
p1782
(dp1783
g3
I0
sg4
I0
sg5
I1
ssV65ord4
p1784
(dp1785
g3
I0
sg4
I0
sg5
I0
ssV65lvfq
p1786
(dp1787
g3
I11
sg4
I0
sg5
I6
ssV65mpt7
p1788
(dp1789
g3
I0
sg4
I0
sg5
I2
ssV65loaf
p1790
(dp1791
g3
I251
sg4
I0
sg5
I13972
ssV6439dq
p1792
(dp1793
g3
I1
sg4
I0
sg5
I18
ssV2vk88c
p1794
(dp1795
g3
I4
sg4
I0
sg5
I28
ssV65w26u
p1796
(dp1797
g3
I0
sg4
I0
sg5
I2
ssV65h0bm
p1798
(dp1799
g3
I0
sg4
I0
sg5
I7
ssV1idzh5
p1800
(dp1801
g3
I11
sg4
I0
sg5
I61
ssV65f1ja
p1802
(dp1803
g3
I11
sg4
I0
sg5
I90
ssV63tkjs
p1804
(dp1805
g3
I8
sg4
I0
sg5
I372
ssV65pq65
p1806
(dp1807
g3
I1
sg4
I0
sg5
I1
ssV66c71g
p1808
(dp1809
g3
I0
sg4
I0
sg5
I16
ssV65mvfh
p1810
(dp1811
g3
I0
sg4
I0
sg5
I5
ssV65g2h1
p1812
(dp1813
g3
I0
sg4
I0
sg5
I4
ssV62hfl8
p1814
(dp1815
g3
I0
sg4
I0
sg5
I1
ssV64sdim
p1816
(dp1817
g3
I1
sg4
I0
sg5
I28
ssV65vsmo
p1818
(dp1819
g3
I1
sg4
I0
sg5
I0
ssV65uqhs
p1820
(dp1821
g3
I1
sg4
I0
sg5
I1
ssV63naqq
p1822
(dp1823
g3
I0
sg4
I0
sg5
I5
ssV65gbkd
p1824
(dp1825
g3
I0
sg4
I0
sg5
I0
ssV64ocxc
p1826
(dp1827
g3
I0
sg4
I0
sg5
I20
ssV63dq8q
p1828
(dp1829
g3
I7
sg4
I0
sg5
I56
ssV65j3ki
p1830
(dp1831
g3
I1
sg4
I0
sg5
I4
ssV65fstu
p1832
(dp1833
g3
I2
sg4
I0
sg5
I14
ssV64pzmc
p1834
(dp1835
g3
I10
sg4
I0
sg5
I109
ssV2v8zvy
p1836
(dp1837
g3
I0
sg4
I0
sg5
I0
ssV64gpbk
p1838
(dp1839
g3
I3
sg4
I0
sg5
I0
ssV65gf4b
p1840
(dp1841
g3
I0
sg4
I0
sg5
I1
ssV650crh
p1842
(dp1843
g3
I0
sg4
I0
sg5
I3
ssV65qear
p1844
(dp1845
g3
I3
sg4
I0
sg5
I5
ssV65k59m
p1846
(dp1847
g3
I2
sg4
I0
sg5
I2
ssV2v61lu
p1848
(dp1849
g3
I0
sg4
I0
sg5
I1
ssV65s0tn
p1850
(dp1851
g3
I23
sg4
I0
sg5
I1096
ssV65jq5t
p1852
(dp1853
g3
I2
sg4
I0
sg5
I55
ssV65vase
p1854
(dp1855
g3
I1
sg4
I0
sg5
I3
ssV2vht6d
p1856
(dp1857
g3
I1
sg4
I0
sg5
I0
ssV65ords
p1858
(dp1859
g3
I1
sg4
I0
sg5
I0
ssV65p0at
p1860
(dp1861
g3
I29
sg4
I0
sg5
I472
ssV62vfov
p1862
(dp1863
g3
I3
sg4
I0
sg5
I13
ssV65r14g
p1864
(dp1865
g3
I77
sg4
I0
sg5
I1674
ssV64qoja
p1866
(dp1867
g3
I2
sg4
I0
sg5
I7
ssV65nxhr
p1868
(dp1869
g3
I7
sg4
I0
sg5
I1
ssV2v41xd
p1870
(dp1871
g3
I66
sg4
I0
sg5
I2345
ssV65pxg0
p1872
(dp1873
g3
I1
sg4
I0
sg5
I0
ssV66a99t
p1874
(dp1875
g3
I1
sg4
I0
sg5
I48
ssV65hlhk
p1876
(dp1877
g3
I0
sg4
I0
sg5
I1
ssV65r3yq
p1878
(dp1879
g3
I0
sg4
I0
sg5
I0
ssV65so5x
p1880
(dp1881
g3
I0
sg4
I0
sg5
I5
ssV65vze5
p1882
(dp1883
g3
I0
sg4
I0
sg5
I5
ssV65of7w
p1884
(dp1885
g3
I0
sg4
I0
sg5
I6
ssV65lqe8
p1886
(dp1887
g3
I0
sg4
I0
sg5
I1
ssV65llg1
p1888
(dp1889
g3
I0
sg4
I0
sg5
I1
ssV62mng1
p1890
(dp1891
g3
I3
sg4
I0
sg5
I42
ssV64qjfg
p1892
(dp1893
g3
I0
sg4
I0
sg5
I0
ssV63laga
p1894
(dp1895
g3
I2
sg4
I0
sg5
I111
ssV62qmol
p1896
(dp1897
g3
I2
sg4
I0
sg5
I32
ssV62d5oz
p1898
(dp1899
g3
I118
sg4
I0
sg5
I4585
ssV65o4o7
p1900
(dp1901
g3
I4
sg4
I0
sg5
I18
ssV65k1m6
p1902
(dp1903
g3
I0
sg4
I0
sg5
I9
ssV65i92o
p1904
(dp1905
g3
I0
sg4
I0
sg5
I1
ssV67435h
p1906
(dp1907
g3
I0
sg4
I0
sg5
I3
ssV2v9v4g
p1908
(dp1909
g3
I0
sg4
I0
sg5
I1
ssV65mec0
p1910
(dp1911
g3
I11
sg4
I0
sg5
I2
ssV65i92e
p1912
(dp1913
g3
I1
sg4
I0
sg5
I1
ssV1ikpuq
p1914
(dp1915
g3
I4
sg4
I0
sg5
I22
ssV1if9jo
p1916
(dp1917
g3
I1
sg4
I0
sg5
I0
ssV2v619x
p1918
(dp1919
g3
I1
sg4
I0
sg5
I0
ssV2vjes7
p1920
(dp1921
g3
I0
sg4
I0
sg5
I1
ssV65faho
p1922
(dp1923
g3
I5
sg4
I0
sg5
I21
ssV65p7qb
p1924
(dp1925
g3
I0
sg4
I0
sg5
I0
ssV65gfei
p1926
(dp1927
g3
I3
sg4
I0
sg5
I82
ssVxkldf
p1928
(dp1929
g3
I3
sg4
I0
sg5
I53
ssV65lzfj
p1930
(dp1931
g3
I4
sg4
I0
sg5
I7
ssV65o3gp
p1932
(dp1933
g3
I2
sg4
I0
sg5
I3
ssV1grw1v
p1934
(dp1935
g3
I4
sg4
I0
sg5
I82
ssV65uheq
p1936
(dp1937
g3
I0
sg4
I0
sg5
I0
ssV65plbf
p1938
(dp1939
g3
I1
sg4
I0
sg5
I0
ssV6434nt
p1940
(dp1941
g3
I5
sg4
I0
sg5
I230
ssV65lr9t
p1942
(dp1943
g3
I1
sg4
I0
sg5
I2
ssV65f1xr
p1944
(dp1945
g3
I1
sg4
I0
sg5
I2
ssVxkg4e
p1946
(dp1947
g3
I1
sg4
I0
sg5
I0
ssV64ja3r
p1948
(dp1949
g3
I2
sg4
I0
sg5
I9
ssV65omgf
p1950
(dp1951
g3
I1
sg4
I0
sg5
I12
ssV65od72
p1952
(dp1953
g3
I2
sg4
I0
sg5
I1
ssVxknpj
p1954
(dp1955
g3
I0
sg4
I0
sg5
I0
ssV65lkk4
p1956
(dp1957
g3
I11
sg4
I0
sg5
I6
ssV65rtmt
p1958
(dp1959
g3
I0
sg4
I0
sg5
I0
ssV65mecs
p1960
(dp1961
g3
I0
sg4
I0
sg5
I1
ssV2ve83n
p1962
(dp1963
g3
I4
sg4
I0
sg5
I11
ssV647dyy
p1964
(dp1965
g3
I0
sg4
I0
sg5
I15
ssV2vdz0b
p1966
(dp1967
g3
I0
sg4
I0
sg5
I13
ssV65zh3k
p1968
(dp1969
g3
I2
sg4
I0
sg5
I2
ssV66021p
p1970
(dp1971
g3
I1
sg4
I0
sg5
I6
ssV65pi4t
p1972
(dp1973
g3
I0
sg4
I0
sg5
I1
ssV634iqa
p1974
(dp1975
g3
I0
sg4
I0
sg5
I1
ssV65omy4
p1976
(dp1977
g3
I13
sg4
I0
sg5
I0
ssV65ioe9
p1978
(dp1979
g3
I2
sg4
I0
sg5
I1
ssV65wewy
p1980
(dp1981
g3
I6
sg4
I0
sg5
I4
ssV65ztno
p1982
(dp1983
g3
I4
sg4
I0
sg5
I15
ssV62mws3
p1984
(dp1985
g3
I0
sg4
I0
sg5
I7
ssVxjpha
p1986
(dp1987
g3
I0
sg4
I0
sg5
I0
ssV65nxnv
p1988
(dp1989
g3
I4
sg4
I0
sg5
I0
ssV65m5yv
p1990
(dp1991
g3
I2
sg4
I0
sg5
I3
ssV64dk28
p1992
(dp1993
g3
I1
sg4
I0
sg5
I9
ssV65gapi
p1994
(dp1995
g3
I3
sg4
I0
sg5
I2
ssV65n67r
p1996
(dp1997
g3
I4
sg4
I0
sg5
I4
ssV641zy7
p1998
(dp1999
g3
I0
sg4
I0
sg5
I1
ssV65oxoy
p2000
(dp2001
g3
I26
sg4
I0
sg5
I62
ssV66cs7x
p2002
(dp2003
g3
I0
sg4
I0
sg5
I2
ssV65oh5l
p2004
(dp2005
g3
I0
sg4
I0
sg5
I0
ssV65ovou
p2006
(dp2007
g3
I7
sg4
I0
sg5
I0
ssV65k4wv
p2008
(dp2009
g3
I3
sg4
I0
sg5
I14
ssV66mmyu
p2010
(dp2011
g3
I0
sg4
I0
sg5
I1
ssV1i1s4b
p2012
(dp2013
g3
I2
sg4
I0
sg5
I37
ssV65ob16
p2014
(dp2015
g3
I2
sg4
I0
sg5
I1
ssV62lm1h
p2016
(dp2017
g3
I1
sg4
I0
sg5
I36
ssV65k4a6
p2018
(dp2019
g3
I1
sg4
I0
sg5
I2
ssV66cr0n
p2020
(dp2021
g3
I0
sg4
I0
sg5
I11
ssV65nwd0
p2022
(dp2023
g3
I0
sg4
I0
sg5
I0
ssV65fmbj
p2024
(dp2025
g3
I0
sg4
I0
sg5
I0
ssV66hih2
p2026
(dp2027
g3
I0
sg4
I0
sg5
I3
ssV65my0s
p2028
(dp2029
g3
I5
sg4
I0
sg5
I350
ssV632lvj
p2030
(dp2031
g3
I5
sg4
I0
sg5
I65
ssV1gpppr
p2032
(dp2033
g3
I2
sg4
I0
sg5
I4
ssV66p1hp
p2034
(dp2035
g3
I6
sg4
I0
sg5
I260
ssV65m6qb
p2036
(dp2037
g3
I1
sg4
I0
sg5
I7
ssV65kkb3
p2038
(dp2039
g3
I0
sg4
I0
sg5
I1
ssV65v8y1
p2040
(dp2041
g3
I4
sg4
I0
sg5
I0
ssV65pxq0
p2042
(dp2043
g3
I0
sg4
I0
sg5
I1
ssV65swag
p2044
(dp2045
g3
I0
sg4
I0
sg5
I0
ssV65qzk1
p2046
(dp2047
g3
I5
sg4
I0
sg5
I0
ssV65kryu
p2048
(dp2049
g3
I0
sg4
I0
sg5
I0
ssV65spgw
p2050
(dp2051
g3
I0
sg4
I0
sg5
I0
ssV65fs2y
p2052
(dp2053
g3
I5
sg4
I0
sg5
I10
ssV63jj0y
p2054
(dp2055
g3
I0
sg4
I0
sg5
I1
ssV65ql5n
p2056
(dp2057
g3
I2
sg4
I0
sg5
I19
ssV65j0yd
p2058
(dp2059
g3
I7
sg4
I0
sg5
I55
ssV64exwz
p2060
(dp2061
g3
I0
sg4
I0
sg5
I2
ssV62gyas
p2062
(dp2063
g3
I0
sg4
I0
sg5
I3
ssV65bi8u
p2064
(dp2065
g3
I29
sg4
I0
sg5
I574
ssV65ij0g
p2066
(dp2067
g3
I0
sg4
I0
sg5
I3
ssV65kc61
p2068
(dp2069
g3
I2
sg4
I0
sg5
I0
ssV2v1qli
p2070
(dp2071
g3
I25
sg4
I0
sg5
I1352
ssV63a0ye
p2072
(dp2073
g3
I1
sg4
I0
sg5
I9
ssV64wxdc
p2074
(dp2075
g3
I0
sg4
I0
sg5
I1
ssV64jkqz
p2076
(dp2077
g3
I2
sg4
I0
sg5
I13
ssV1g39uf
p2078
(dp2079
g3
I0
sg4
I0
sg5
I24
ssV63q5eo
p2080
(dp2081
g3
I1
sg4
I0
sg5
I9
ssV64ydt9
p2082
(dp2083
g3
I0
sg4
I0
sg5
I14
ssV63k5na
p2084
(dp2085
g3
I2
sg4
I0
sg5
I12
ssV66z723
p2086
(dp2087
g3
I0
sg4
I0
sg5
I1
ssV64ogdi
p2088
(dp2089
g3
I0
sg4
I0
sg5
I3
ssV65uesf
p2090
(dp2091
g3
I1
sg4
I0
sg5
I1
ssV66czsg
p2092
(dp2093
g3
I0
sg4
I0
sg5
I1
ssV65uesd
p2094
(dp2095
g3
I0
sg4
I0
sg5
I1
ssV6591ei
p2096
(dp2097
g3
I0
sg4
I0
sg5
I1
ssV64cv64
p2098
(dp2099
g3
I0
sg4
I0
sg5
I3
ssV65jqci
p2100
(dp2101
g3
I4
sg4
I0
sg5
I1
ssV65hdvv
p2102
(dp2103
g3
I1
sg4
I0
sg5
I2
ssV640d6f
p2104
(dp2105
g3
I12
sg4
I0
sg5
I432
ssV65m2kv
p2106
(dp2107
g3
I2
sg4
I0
sg5
I8
ssV2vftpp
p2108
(dp2109
g3
I0
sg4
I0
sg5
I1
ssV662a6r
p2110
(dp2111
g3
I2
sg4
I0
sg5
I3
ssV65h3om
p2112
(dp2113
g3
I1
sg4
I0
sg5
I2
ssV66fwwf
p2114
(dp2115
g3
I0
sg4
I0
sg5
I4
ssV65ohwa
p2116
(dp2117
g3
I7
sg4
I0
sg5
I44
ssV65mwse
p2118
(dp2119
g3
I5
sg4
I0
sg5
I91
ssV65vb5p
p2120
(dp2121
g3
I1
sg4
I0
sg5
I0
ssV65q5sb
p2122
(dp2123
g3
I0
sg4
I0
sg5
I0
ssV65p9s8
p2124
(dp2125
g3
I3
sg4
I0
sg5
I39
ssVxk1y6
p2126
(dp2127
g3
I50
sg4
I0
sg5
I998
ssV65f1w8
p2128
(dp2129
g3
I1
sg4
I0
sg5
I5
ssV66k6ev
p2130
(dp2131
g3
I0
sg4
I0
sg5
I0
ssV65qltk
p2132
(dp2133
g3
I20
sg4
I0
sg5
I329
ssV64r2kj
p2134
(dp2135
g3
I0
sg4
I0
sg5
I4
ssV1gh1m7
p2136
(dp2137
g3
I0
sg4
I0
sg5
I37
ssV65nnsh
p2138
(dp2139
g3
I1
sg4
I0
sg5
I25
ssV65oj0t
p2140
(dp2141
g3
I1
sg4
I0
sg5
I3
ssV64tf2e
p2142
(dp2143
g3
I2
sg4
I0
sg5
I6
ssV641y2y
p2144
(dp2145
g3
I0
sg4
I0
sg5
I0
ssV63uvzt
p2146
(dp2147
g3
I0
sg4
I0
sg5
I3
ssV66kj9x
p2148
(dp2149
g3
I2
sg4
I0
sg5
I22
ssV65vejz
p2150
(dp2151
g3
I1
sg4
I0
sg5
I4
ssV65g7zz
p2152
(dp2153
g3
I0
sg4
I0
sg5
I0
ssV66evkz
p2154
(dp2155
g3
I0
sg4
I0
sg5
I20
ssV65hdjc
p2156
(dp2157
g3
I1
sg4
I0
sg5
I39
ssV63lsey
p2158
(dp2159
g3
I0
sg4
I0
sg5
I4
ssV66wqxm
p2160
(dp2161
g3
I0
sg4
I0
sg5
I10
ssV65wm01
p2162
(dp2163
g3
I1
sg4
I0
sg5
I7
ssV65hsoi
p2164
(dp2165
g3
I2
sg4
I0
sg5
I19
ssV65jl91
p2166
(dp2167
g3
I3
sg4
I0
sg5
I1
ssV2va85q
p2168
(dp2169
g3
I0
sg4
I0
sg5
I3
ssV65tsyq
p2170
(dp2171
g3
I8
sg4
I0
sg5
I154
ssV2v2g2x
p2172
(dp2173
g3
I0
sg4
I0
sg5
I0
ssV65rwqm
p2174
(dp2175
g3
I0
sg4
I0
sg5
I0
ssV64hx5s
p2176
(dp2177
g3
I0
sg4
I0
sg5
I15
ssV65jr3m
p2178
(dp2179
g3
I2
sg4
I0
sg5
I51
ssV65j22o
p2180
(dp2181
g3
I6
sg4
I0
sg5
I36
ssV65rex6
p2182
(dp2183
g3
I14
sg4
I0
sg5
I147
ssV65r5mp
p2184
(dp2185
g3
I2
sg4
I0
sg5
I23
ssV671wsb
p2186
(dp2187
g3
I3
sg4
I0
sg5
I42
ssV66bvcz
p2188
(dp2189
g3
I0
sg4
I0
sg5
I9
ssV65asko
p2190
(dp2191
g3
I0
sg4
I0
sg5
I8
ssV65ptvq
p2192
(dp2193
g3
I0
sg4
I0
sg5
I1
ssV66uv00
p2194
(dp2195
g3
I0
sg4
I0
sg5
I0
ssV6374eb
p2196
(dp2197
g3
I53
sg4
I0
sg5
I1999
ssV65h2gx
p2198
(dp2199
g3
I12
sg4
I0
sg5
I175
ssV65r4ai
p2200
(dp2201
g3
I0
sg4
I0
sg5
I3
ssV65o1cv
p2202
(dp2203
g3
I4
sg4
I0
sg5
I0
ssV65snqd
p2204
(dp2205
g3
I11
sg4
I0
sg5
I58
ssV65py53
p2206
(dp2207
g3
I0
sg4
I0
sg5
I1
ssV65gqwk
p2208
(dp2209
g3
I3
sg4
I0
sg5
I16
ssV65ipsn
p2210
(dp2211
g3
I17
sg4
I0
sg5
I109
ssV65hfth
p2212
(dp2213
g3
I0
sg4
I0
sg5
I3
ssV65wm0i
p2214
(dp2215
g3
I0
sg4
I0
sg5
I1
ssV64nrk0
p2216
(dp2217
g3
I0
sg4
I0
sg5
I0
ssV2v64hh
p2218
(dp2219
g3
I0
sg4
I0
sg5
I4
ssV65mlkq
p2220
(dp2221
g3
I0
sg4
I0
sg5
I0
ssV2vjs4j
p2222
(dp2223
g3
I0
sg4
I0
sg5
I3
ssV65s0im
p2224
(dp2225
g3
I3
sg4
I0
sg5
I0
ssV65g2tw
p2226
(dp2227
g3
I0
sg4
I0
sg5
I0
ssV65mlky
p2228
(dp2229
g3
I0
sg4
I0
sg5
I1
ssV65w3w5
p2230
(dp2231
g3
I0
sg4
I0
sg5
I0
ssV66giks
p2232
(dp2233
g3
I0
sg4
I0
sg5
I2
ssV65ubjs
p2234
(dp2235
g3
I2
sg4
I0
sg5
I0
ssV65hkyv
p2236
(dp2237
g3
I0
sg4
I0
sg5
I0
ssV65wivn
p2238
(dp2239
g3
I2
sg4
I0
sg5
I12
ssV2v7hyv
p2240
(dp2241
g3
I1
sg4
I0
sg5
I2
ssV65udji
p2242
(dp2243
g3
I1
sg4
I0
sg5
I3
ssV660pse
p2244
(dp2245
g3
I10
sg4
I0
sg5
I173
ssV1igigx
p2246
(dp2247
g3
I12
sg4
I0
sg5
I176
ssV62v947
p2248
(dp2249
g3
I0
sg4
I0
sg5
I3
ssV65j3hb
p2250
(dp2251
g3
I0
sg4
I0
sg5
I1
ssV65il52
p2252
(dp2253
g3
I3
sg4
I0
sg5
I3
ssV64ye28
p2254
(dp2255
g3
I1
sg4
I0
sg5
I37
ssV64hc35
p2256
(dp2257
g3
I4
sg4
I0
sg5
I85
ssV65iqyn
p2258
(dp2259
g3
I7
sg4
I0
sg5
I77
ssV65kv9z
p2260
(dp2261
g3
I2
sg4
I0
sg5
I1
ssV6307t6
p2262
(dp2263
g3
I1
sg4
I0
sg5
I12
ssV65rxlh
p2264
(dp2265
g3
I0
sg4
I0
sg5
I0
ssV65qulb
p2266
(dp2267
g3
I3
sg4
I0
sg5
I122
ssV65in91
p2268
(dp2269
g3
I14
sg4
I0
sg5
I37
ssV66vff7
p2270
(dp2271
g3
I1
sg4
I0
sg5
I4
ssV65zs3h
p2272
(dp2273
g3
I0
sg4
I0
sg5
I5
ssV65jq6g
p2274
(dp2275
g3
I3
sg4
I0
sg5
I0
ssV65lt2v
p2276
(dp2277
g3
I8
sg4
I0
sg5
I0
ssV66kqo1
p2278
(dp2279
g3
I1
sg4
I0
sg5
I0
ssV2v28sy
p2280
(dp2281
g3
I3
sg4
I0
sg5
I0
ssV66yeh2
p2282
(dp2283
g3
I1
sg4
I0
sg5
I1
ssV65g53c
p2284
(dp2285
g3
I1
sg4
I0
sg5
I3
ssV63nit7
p2286
(dp2287
g3
I2
sg4
I0
sg5
I13
ssV1gdy3x
p2288
(dp2289
g3
I0
sg4
I0
sg5
I0
ssV65qgtv
p2290
(dp2291
g3
I2
sg4
I0
sg5
I1
ssV64gs34
p2292
(dp2293
g3
I1
sg4
I0
sg5
I18
ssV65km1j
p2294
(dp2295
g3
I12
sg4
I0
sg5
I89
ssV66j6gt
p2296
(dp2297
g3
I0
sg4
I0
sg5
I3
ssV64b3x8
p2298
(dp2299
g3
I0
sg4
I0
sg5
I14
ssV63soma
p2300
(dp2301
g3
I6
sg4
I0
sg5
I172
ssV66f8w4
p2302
(dp2303
g3
I0
sg4
I0
sg5
I3
ssV1igtrk
p2304
(dp2305
g3
I0
sg4
I0
sg5
I8
ssV65irop
p2306
(dp2307
g3
I1
sg4
I0
sg5
I2
ssVxkee4
p2308
(dp2309
g3
I5
sg4
I0
sg5
I72
ssV65u2ix
p2310
(dp2311
g3
I0
sg4
I0
sg5
I6
ssV6494ty
p2312
(dp2313
g3
I2
sg4
I0
sg5
I9
ssV65jrho
p2314
(dp2315
g3
I19
sg4
I0
sg5
I52
ssV2vg1kj
p2316
(dp2317
g3
I1
sg4
I0
sg5
I2
ssV65llzb
p2318
(dp2319
g3
I3
sg4
I0
sg5
I82
ssV65r2za
p2320
(dp2321
g3
I3
sg4
I0
sg5
I29
ssV65rsx6
p2322
(dp2323
g3
I0
sg4
I0
sg5
I10
ssV65hmoj
p2324
(dp2325
g3
I1
sg4
I0
sg5
I3
ssV6303u7
p2326
(dp2327
g3
I0
sg4
I0
sg5
I1
ssV65keyx
p2328
(dp2329
g3
I7
sg4
I0
sg5
I6
ssV1if13e
p2330
(dp2331
g3
I0
sg4
I0
sg5
I4
ssV65q7rz
p2332
(dp2333
g3
I1
sg4
I0
sg5
I0
ssV65uk4n
p2334
(dp2335
g3
I0
sg4
I0
sg5
I3
ssV66e1sy
p2336
(dp2337
g3
I0
sg4
I0
sg5
I5
ssV1har5v
p2338
(dp2339
g3
I0
sg4
I0
sg5
I0
ssV65rq44
p2340
(dp2341
g3
I0
sg4
I0
sg5
I3
ssV2vhll8
p2342
(dp2343
g3
I1
sg4
I0
sg5
I3
ssV65jpl8
p2344
(dp2345
g3
I2
sg4
I0
sg5
I1
ssV65epf4
p2346
(dp2347
g3
I0
sg4
I0
sg5
I0
ssV65wps1
p2348
(dp2349
g3
I0
sg4
I0
sg5
I2
ssV65uc2p
p2350
(dp2351
g3
I0
sg4
I0
sg5
I1
ssV66mspl
p2352
(dp2353
g3
I2
sg4
I0
sg5
I16
ssV2v6dj5
p2354
(dp2355
g3
I0
sg4
I0
sg5
I8
ssV65ol27
p2356
(dp2357
g3
I266
sg4
I0
sg5
I13786
ssV65uqyw
p2358
(dp2359
g3
I1
sg4
I0
sg5
I0
ssV1gb80e
p2360
(dp2361
g3
I0
sg4
I0
sg5
I1
ssV671p2p
p2362
(dp2363
g3
I0
sg4
I0
sg5
I0
ssV2viozr
p2364
(dp2365
g3
I1
sg4
I0
sg5
I4
ssV65qsd7
p2366
(dp2367
g3
I1
sg4
I0
sg5
I10
ssV66udzz
p2368
(dp2369
g3
I0
sg4
I0
sg5
I12
ssV65lzez
p2370
(dp2371
g3
I1
sg4
I0
sg5
I0
ssV65oex2
p2372
(dp2373
g3
I0
sg4
I0
sg5
I1
ssV64zs17
p2374
(dp2375
g3
I0
sg4
I0
sg5
I3
ssV639zgq
p2376
(dp2377
g3
I0
sg4
I0
sg5
I5
ssV65t3mv
p2378
(dp2379
g3
I0
sg4
I0
sg5
I0
ssV6523kd
p2380
(dp2381
g3
I0
sg4
I0
sg5
I8
ssV65o8lf
p2382
(dp2383
g3
I0
sg4
I0
sg5
I3
ssV65s177
p2384
(dp2385
g3
I6
sg4
I0
sg5
I0
ssV66kpg0
p2386
(dp2387
g3
I1
sg4
I0
sg5
I17
ssV65eu8p
p2388
(dp2389
g3
I2
sg4
I0
sg5
I12
ssV65pd0b
p2390
(dp2391
g3
I0
sg4
I0
sg5
I2
ssV65fscm
p2392
(dp2393
g3
I5
sg4
I0
sg5
I35
ssV673xgr
p2394
(dp2395
g3
I0
sg4
I0
sg5
I4
ssV65q8r2
p2396
(dp2397
g3
I0
sg4
I0
sg5
I2
ssV65jdq7
p2398
(dp2399
g3
I2
sg4
I0
sg5
I1
ssV65mtay
p2400
(dp2401
g3
I1
sg4
I0
sg5
I9
ssV2vg3ub
p2402
(dp2403
g3
I1
sg4
I0
sg5
I46
ssV642kq2
p2404
(dp2405
g3
I1
sg4
I0
sg5
I3
ssV645wa5
p2406
(dp2407
g3
I1
sg4
I0
sg5
I4
ssV673zwv
p2408
(dp2409
g3
I2
sg4
I0
sg5
I5
ssV65pc11
p2410
(dp2411
g3
I0
sg4
I0
sg5
I44
ssV64qfak
p2412
(dp2413
g3
I162
sg4
I0
sg5
I4770
ssV65gzf7
p2414
(dp2415
g3
I4
sg4
I0
sg5
I0
ssV65ys9b
p2416
(dp2417
g3
I0
sg4
I0
sg5
I3
ssV6359gw
p2418
(dp2419
g3
I1
sg4
I0
sg5
I12
ssV65qe95
p2420
(dp2421
g3
I0
sg4
I0
sg5
I0
ssV62wzex
p2422
(dp2423
g3
I0
sg4
I0
sg5
I1
ssV65p4xd
p2424
(dp2425
g3
I0
sg4
I0
sg5
I20
ssV648c2u
p2426
(dp2427
g3
I0
sg4
I0
sg5
I8
ssV65rgow
p2428
(dp2429
g3
I1
sg4
I0
sg5
I0
ssV663a12
p2430
(dp2431
g3
I0
sg4
I0
sg5
I1
ssV652owj
p2432
(dp2433
g3
I0
sg4
I0
sg5
I1
ssV669wbz
p2434
(dp2435
g3
I1
sg4
I0
sg5
I64
ssV2v4aiq
p2436
(dp2437
g3
I0
sg4
I0
sg5
I1
ssV64bhcg
p2438
(dp2439
g3
I5
sg4
I0
sg5
I17
ssV65mdvs
p2440
(dp2441
g3
I0
sg4
I0
sg5
I1
ssV66x4dv
p2442
(dp2443
g3
I1
sg4
I0
sg5
I6
ssV65sokt
p2444
(dp2445
g3
I0
sg4
I0
sg5
I1
ssV2v3wte
p2446
(dp2447
g3
I0
sg4
I0
sg5
I57
ssV62lmrp
p2448
(dp2449
g3
I1
sg4
I0
sg5
I22
ssV65pc1m
p2450
(dp2451
g3
I0
sg4
I0
sg5
I0
ssV65uhtz
p2452
(dp2453
g3
I0
sg4
I0
sg5
I0
ssV65gftp
p2454
(dp2455
g3
I2
sg4
I0
sg5
I3
ssV673pom
p2456
(dp2457
g3
I0
sg4
I0
sg5
I2
ssV65okvm
p2458
(dp2459
g3
I0
sg4
I0
sg5
I0
ssV643e1l
p2460
(dp2461
g3
I1
sg4
I0
sg5
I1
ssV65sbks
p2462
(dp2463
g3
I0
sg4
I0
sg5
I0
ssV64763k
p2464
(dp2465
g3
I5
sg4
I0
sg5
I121
ssV2v2423
p2466
(dp2467
g3
I0
sg4
I0
sg5
I0
ssV65jdqa
p2468
(dp2469
g3
I0
sg4
I0
sg5
I0
ssV642imn
p2470
(dp2471
g3
I0
sg4
I0
sg5
I7
ssV65tjlh
p2472
(dp2473
g3
I1
sg4
I0
sg5
I6
ssV65lzwg
p2474
(dp2475
g3
I0
sg4
I0
sg5
I1
ssV65wkt1
p2476
(dp2477
g3
I8
sg4
I0
sg5
I1
ssV662qf6
p2478
(dp2479
g3
I2
sg4
I0
sg5
I59
ssV667zl3
p2480
(dp2481
g3
I0
sg4
I0
sg5
I7
ssV65m2ha
p2482
(dp2483
g3
I0
sg4
I0
sg5
I3
ssV65u69a
p2484
(dp2485
g3
I1
sg4
I0
sg5
I5
ssV6748ci
p2486
(dp2487
g3
I1
sg4
I0
sg5
I2
ssV65sj11
p2488
(dp2489
g3
I1
sg4
I0
sg5
I3
ssV644kss
p2490
(dp2491
g3
I2
sg4
I0
sg5
I3
ssV66syiv
p2492
(dp2493
g3
I2
sg4
I0
sg5
I35
ssV65xjup
p2494
(dp2495
g3
I1
sg4
I0
sg5
I0
ssV62prrj
p2496
(dp2497
g3
I0
sg4
I0
sg5
I25
ssV65tib1
p2498
(dp2499
g3
I6
sg4
I0
sg5
I83
ssV66oozz
p2500
(dp2501
g3
I0
sg4
I0
sg5
I1
ssV641p01
p2502
(dp2503
g3
I0
sg4
I0
sg5
I2
ssV65ts3e
p2504
(dp2505
g3
I1
sg4
I0
sg5
I12
ssV65f44t
p2506
(dp2507
g3
I0
sg4
I0
sg5
I2
ssV66bqbp
p2508
(dp2509
g3
I0
sg4
I0
sg5
I1
ssV65vod4
p2510
(dp2511
g3
I0
sg4
I0
sg5
I1
ssV65vj2e
p2512
(dp2513
g3
I3
sg4
I0
sg5
I5
ssV65k36n
p2514
(dp2515
g3
I1
sg4
I0
sg5
I0
ssV1h7t6c
p2516
(dp2517
g3
I7
sg4
I0
sg5
I24
ssV65vb4c
p2518
(dp2519
g3
I2
sg4
I0
sg5
I2
ssV1epdip
p2520
(dp2521
g3
I2
sg4
I0
sg5
I22
ssV65pv9r
p2522
(dp2523
g3
I0
sg4
I0
sg5
I9
ssV65tu3j
p2524
(dp2525
g3
I1
sg4
I0
sg5
I0
ssV65jwpl
p2526
(dp2527
g3
I1
sg4
I0
sg5
I1
ssV66myqx
p2528
(dp2529
g3
I0
sg4
I0
sg5
I3
ssV6489po
p2530
(dp2531
g3
I1
sg4
I0
sg5
I30
ssV2vj8zi
p2532
(dp2533
g3
I1
sg4
I0
sg5
I4
ssV65misr
p2534
(dp2535
g3
I7
sg4
I0
sg5
I0
ssV1icqlr
p2536
(dp2537
g3
I3
sg4
I0
sg5
I13
ssV65fmqq
p2538
(dp2539
g3
I12
sg4
I0
sg5
I252
ssV6303is
p2540
(dp2541
g3
I0
sg4
I0
sg5
I1
ssV65qr0j
p2542
(dp2543
g3
I0
sg4
I0
sg5
I2
ssV64odjw
p2544
(dp2545
g3
I1
sg4
I0
sg5
I0
ssV64107d
p2546
(dp2547
g3
I5
sg4
I0
sg5
I347
ssV65w8b9
p2548
(dp2549
g3
I1
sg4
I0
sg5
I1
ssV64o47q
p2550
(dp2551
g3
I1
sg4
I0
sg5
I3
ssV65j6d2
p2552
(dp2553
g3
I1
sg4
I0
sg5
I10
ssV65w2x6
p2554
(dp2555
g3
I2
sg4
I0
sg5
I0
ssV65i264
p2556
(dp2557
g3
I0
sg4
I0
sg5
I1
ssV64se2y
p2558
(dp2559
g3
I0
sg4
I0
sg5
I1
ssV632y72
p2560
(dp2561
g3
I0
sg4
I0
sg5
I3
ssV65ik2h
p2562
(dp2563
g3
I0
sg4
I0
sg5
I0
ssV65nswq
p2564
(dp2565
g3
I2
sg4
I0
sg5
I5
ssV65gy80
p2566
(dp2567
g3
I4
sg4
I0
sg5
I0
ssV2v5cp0
p2568
(dp2569
g3
I2
sg4
I0
sg5
I38
ssV2v88kx
p2570
(dp2571
g3
I0
sg4
I0
sg5
I5
ssV62vv9e
p2572
(dp2573
g3
I0
sg4
I0
sg5
I0
ssV65h53v
p2574
(dp2575
g3
I11
sg4
I0
sg5
I424
ssV65pfwr
p2576
(dp2577
g3
I1
sg4
I0
sg5
I0
ssV2vkkiw
p2578
(dp2579
g3
I0
sg4
I0
sg5
I3
ssV65iayg
p2580
(dp2581
g3
I0
sg4
I0
sg5
I1
ssV640fb4
p2582
(dp2583
g3
I2
sg4
I0
sg5
I12
ssV65dq4e
p2584
(dp2585
g3
I0
sg4
I0
sg5
I1
ssV1gm4mh
p2586
(dp2587
g3
I8
sg4
I0
sg5
I54
ssV64t02c
p2588
(dp2589
g3
I1
sg4
I0
sg5
I2
ssV65fcuo
p2590
(dp2591
g3
I1
sg4
I0
sg5
I8
ssV660rm7
p2592
(dp2593
g3
I0
sg4
I0
sg5
I0
ssV65hdky
p2594
(dp2595
g3
I0
sg4
I0
sg5
I0
ssV636mjw
p2596
(dp2597
g3
I2
sg4
I0
sg5
I3
ssV65vb49
p2598
(dp2599
g3
I12
sg4
I0
sg5
I50
ssV65llno
p2600
(dp2601
g3
I24
sg4
I0
sg5
I765
ssV65oux8
p2602
(dp2603
g3
I1
sg4
I0
sg5
I5
ssV63v3tp
p2604
(dp2605
g3
I0
sg4
I0
sg5
I1
ssV65owvv
p2606
(dp2607
g3
I1
sg4
I0
sg5
I9
ssV65g3e0
p2608
(dp2609
g3
I2
sg4
I0
sg5
I9
ssV65vg9s
p2610
(dp2611
g3
I1
sg4
I0
sg5
I0
ssV2vcrd9
p2612
(dp2613
g3
I1
sg4
I0
sg5
I37
ssV65sht9
p2614
(dp2615
g3
I3
sg4
I0
sg5
I0
ssV65i1zj
p2616
(dp2617
g3
I2
sg4
I0
sg5
I1
ssV64g552
p2618
(dp2619
g3
I0
sg4
I0
sg5
I0
ssV2vc5xh
p2620
(dp2621
g3
I0
sg4
I0
sg5
I0
ssV647cyv
p2622
(dp2623
g3
I2
sg4
I0
sg5
I11
ssV65lwhm
p2624
(dp2625
g3
I5
sg4
I0
sg5
I11
ssV64xs2y
p2626
(dp2627
g3
I0
sg4
I0
sg5
I1
ssV66hzlm
p2628
(dp2629
g3
I0
sg4
I0
sg5
I3
ssV65lfkf
p2630
(dp2631
g3
I0
sg4
I0
sg5
I0
ssV65pmoz
p2632
(dp2633
g3
I0
sg4
I0
sg5
I1
ssV64k32b
p2634
(dp2635
g3
I2
sg4
I0
sg5
I2
ssV651g1g
p2636
(dp2637
g3
I0
sg4
I0
sg5
I15
ssV64qjk1
p2638
(dp2639
g3
I4
sg4
I0
sg5
I9
ssV65szz4
p2640
(dp2641
g3
I5
sg4
I0
sg5
I20
ssV2v8nc3
p2642
(dp2643
g3
I0
sg4
I0
sg5
I0
ssV65t0pj
p2644
(dp2645
g3
I1
sg4
I0
sg5
I12
ssV65w0rn
p2646
(dp2647
g3
I0
sg4
I0
sg5
I1
ssV656jo8
p2648
(dp2649
g3
I1
sg4
I0
sg5
I7
ssV65tuzt
p2650
(dp2651
g3
I2
sg4
I0
sg5
I0
ssV65joaq
p2652
(dp2653
g3
I13
sg4
I0
sg5
I222
ssV65m0vb
p2654
(dp2655
g3
I0
sg4
I0
sg5
I1
ssV1ilvwn
p2656
(dp2657
g3
I0
sg4
I0
sg5
I19
ssV66zv7g
p2658
(dp2659
g3
I1
sg4
I0
sg5
I12
ssV65mupr
p2660
(dp2661
g3
I2
sg4
I0
sg5
I10
ssV66047a
p2662
(dp2663
g3
I4
sg4
I0
sg5
I21
ssV65xpgd
p2664
(dp2665
g3
I0
sg4
I0
sg5
I1
ssV65pkoj
p2666
(dp2667
g3
I0
sg4
I0
sg5
I2
ssV65sprs
p2668
(dp2669
g3
I0
sg4
I0
sg5
I0
ssV2vdppu
p2670
(dp2671
g3
I0
sg4
I0
sg5
I1
ssV2v4avd
p2672
(dp2673
g3
I2
sg4
I0
sg5
I6
ssV65cmxo
p2674
(dp2675
g3
I1
sg4
I0
sg5
I1
ssV63iow4
p2676
(dp2677
g3
I3
sg4
I0
sg5
I5
ssV65mg5n
p2678
(dp2679
g3
I1
sg4
I0
sg5
I2
ssV65mg5o
p2680
(dp2681
g3
I1
sg4
I0
sg5
I0
ssV6595c4
p2682
(dp2683
g3
I4
sg4
I0
sg5
I83
ssV63gbzs
p2684
(dp2685
g3
I0
sg4
I0
sg5
I11
ssV65u8t9
p2686
(dp2687
g3
I3
sg4
I0
sg5
I10
ssV65m2vb
p2688
(dp2689
g3
I0
sg4
I0
sg5
I0
ssV1iczvz
p2690
(dp2691
g3
I0
sg4
I0
sg5
I13
ssV65sxbc
p2692
(dp2693
g3
I0
sg4
I0
sg5
I7
ssV62lqy3
p2694
(dp2695
g3
I0
sg4
I0
sg5
I1
ssV2v1zwa
p2696
(dp2697
g3
I3
sg4
I0
sg5
I8
ssV2v1nxo
p2698
(dp2699
g3
I0
sg4
I0
sg5
I5
ssV65w2j2
p2700
(dp2701
g3
I18
sg4
I0
sg5
I250
ssV1icjx1
p2702
(dp2703
g3
I30
sg4
I0
sg5
I962
ssV65qncu
p2704
(dp2705
g3
I4
sg4
I0
sg5
I60
ssV65fzsu
p2706
(dp2707
g3
I0
sg4
I0
sg5
I2
ssV63fl0s
p2708
(dp2709
g3
I0
sg4
I0
sg5
I6
ssV66ak92
p2710
(dp2711
g3
I2
sg4
I0
sg5
I8
ssV65pcoc
p2712
(dp2713
g3
I416
sg4
I0
sg5
I25277
ssV66az20
p2714
(dp2715
g3
I0
sg4
I0
sg5
I1
ssV662c3g
p2716
(dp2717
g3
I1
sg4
I0
sg5
I18
ssV65qcv3
p2718
(dp2719
g3
I0
sg4
I0
sg5
I1
ssV65v3vb
p2720
(dp2721
g3
I8
sg4
I0
sg5
I108
ssV65f92j
p2722
(dp2723
g3
I0
sg4
I0
sg5
I3
ssV65krl5
p2724
(dp2725
g3
I4
sg4
I0
sg5
I9
ssV62vxue
p2726
(dp2727
g3
I0
sg4
I0
sg5
I3
ssV1g9hh6
p2728
(dp2729
g3
I3
sg4
I0
sg5
I120
ssVxkfpx
p2730
(dp2731
g3
I74
sg4
I0
sg5
I1080
ssV1ep9xn
p2732
(dp2733
g3
I8
sg4
I0
sg5
I31
ssV65nk1f
p2734
(dp2735
g3
I6
sg4
I0
sg5
I27
ssV65nk1e
p2736
(dp2737
g3
I0
sg4
I0
sg5
I1
ssV65q3e1
p2738
(dp2739
g3
I0
sg4
I0
sg5
I0
ssV65ku1r
p2740
(dp2741
g3
I1
sg4
I0
sg5
I0
ssV64knlg
p2742
(dp2743
g3
I2
sg4
I0
sg5
I8
ssV63jhr9
p2744
(dp2745
g3
I0
sg4
I0
sg5
I1
ssV65p8al
p2746
(dp2747
g3
I28
sg4
I0
sg5
I1034
ssV65psyi
p2748
(dp2749
g3
I13
sg4
I0
sg5
I109
ssV631luq
p2750
(dp2751
g3
I1
sg4
I0
sg5
I2
ssV62p9b2
p2752
(dp2753
g3
I0
sg4
I0
sg5
I25
ssV65g23w
p2754
(dp2755
g3
I5
sg4
I0
sg5
I8
ssV65hbth
p2756
(dp2757
g3
I0
sg4
I0
sg5
I0
ssV65jw9b
p2758
(dp2759
g3
I0
sg4
I0
sg5
I3
ssV66vxuq
p2760
(dp2761
g3
I5
sg4
I0
sg5
I77
ssV65ff0u
p2762
(dp2763
g3
I3
sg4
I0
sg5
I10
ssV65w1pl
p2764
(dp2765
g3
I1
sg4
I0
sg5
I0
ssV65jw9e
p2766
(dp2767
g3
I1
sg4
I0
sg5
I4
ssV65jw9o
p2768
(dp2769
g3
I1
sg4
I0
sg5
I3
ssV64b112
p2770
(dp2771
g3
I0
sg4
I0
sg5
I4
ssV65rs64
p2772
(dp2773
g3
I1
sg4
I0
sg5
I0
ssV62fr18
p2774
(dp2775
g3
I0
sg4
I0
sg5
I1
ssV65jp0b
p2776
(dp2777
g3
I2
sg4
I0
sg5
I15
ssV65f3bq
p2778
(dp2779
g3
I1
sg4
I0
sg5
I83
ssV2vko4i
p2780
(dp2781
g3
I0
sg4
I0
sg5
I14
ssV66cwz2
p2782
(dp2783
g3
I2
sg4
I0
sg5
I82
ssVxko8f
p2784
(dp2785
g3
I2
sg4
I0
sg5
I0
ssV65h4hk
p2786
(dp2787
g3
I2
sg4
I0
sg5
I6
ssV65wjyd
p2788
(dp2789
g3
I2
sg4
I0
sg5
I5
ssV65ue9r
p2790
(dp2791
g3
I1
sg4
I0
sg5
I1
ssV63fp5o
p2792
(dp2793
g3
I3
sg4
I0
sg5
I145
ssV62vf9a
p2794
(dp2795
g3
I0
sg4
I0
sg5
I7
ssV65t9rk
p2796
(dp2797
g3
I2
sg4
I0
sg5
I12
ssV651hdd
p2798
(dp2799
g3
I1
sg4
I0
sg5
I32
ssV65psiv
p2800
(dp2801
g3
I0
sg4
I0
sg5
I1
ssV2v99py
p2802
(dp2803
g3
I0
sg4
I0
sg5
I0
ssV65h7te
p2804
(dp2805
g3
I2
sg4
I0
sg5
I0
ssV65lylj
p2806
(dp2807
g3
I2
sg4
I0
sg5
I272
ssV63phhz
p2808
(dp2809
g3
I7
sg4
I0
sg5
I3
ssV62g3un
p2810
(dp2811
g3
I0
sg4
I0
sg5
I5
ssV65vtq3
p2812
(dp2813
g3
I3
sg4
I0
sg5
I12
ssV66hcg2
p2814
(dp2815
g3
I3
sg4
I0
sg5
I23
ssV6505p7
p2816
(dp2817
g3
I0
sg4
I0
sg5
I15
ssV65juqh
p2818
(dp2819
g3
I10
sg4
I0
sg5
I6
ssV64h8s5
p2820
(dp2821
g3
I5
sg4
I0
sg5
I5
ssV65w3vh
p2822
(dp2823
g3
I21
sg4
I0
sg5
I181
ssV65i5bs
p2824
(dp2825
g3
I0
sg4
I0
sg5
I1
ssV63or73
p2826
(dp2827
g3
I1
sg4
I0
sg5
I15
ssV65munu
p2828
(dp2829
g3
I5
sg4
I0
sg5
I10
ssV65tv0g
p2830
(dp2831
g3
I1
sg4
I0
sg5
I5
ssV64b6v0
p2832
(dp2833
g3
I0
sg4
I0
sg5
I1
ssV65snl5
p2834
(dp2835
g3
I5
sg4
I0
sg5
I60
ssV2vengf
p2836
(dp2837
g3
I4
sg4
I0
sg5
I7
ssV65i7rj
p2838
(dp2839
g3
I1
sg4
I0
sg5
I8
ssV667jed
p2840
(dp2841
g3
I0
sg4
I0
sg5
I1
ssV65gsiu
p2842
(dp2843
g3
I3
sg4
I0
sg5
I21
ssV2wllsf
p2844
(dp2845
g3
I0
sg4
I0
sg5
I2
ssV63ra8m
p2846
(dp2847
g3
I0
sg4
I0
sg5
I5
ssV6325cv
p2848
(dp2849
g3
I0
sg4
I0
sg5
I1
ssV65wnq5
p2850
(dp2851
g3
I6
sg4
I0
sg5
I33
ssV65r8y7
p2852
(dp2853
g3
I1
sg4
I0
sg5
I0
ssV1eowzf
p2854
(dp2855
g3
I8
sg4
I0
sg5
I599
ssV669b06
p2856
(dp2857
g3
I2
sg4
I0
sg5
I52
ssV657gre
p2858
(dp2859
g3
I0
sg4
I0
sg5
I6
ssV63qsib
p2860
(dp2861
g3
I0
sg4
I0
sg5
I0
ssV63fg7z
p2862
(dp2863
g3
I0
sg4
I0
sg5
I2
ssV65s16a
p2864
(dp2865
g3
I0
sg4
I0
sg5
I1
ssV64nl5u
p2866
(dp2867
g3
I0
sg4
I0
sg5
I0
ssV65fd25
p2868
(dp2869
g3
I13
sg4
I0
sg5
I84
ssV65sirr
p2870
(dp2871
g3
I28
sg4
I0
sg5
I401
ssV65r9mc
p2872
(dp2873
g3
I1
sg4
I0
sg5
I0
ssV65qmwx
p2874
(dp2875
g3
I0
sg4
I0
sg5
I0
ssV1cz9nd
p2876
(dp2877
g3
I1
sg4
I0
sg5
I26
ssV65mdwz
p2878
(dp2879
g3
I0
sg4
I0
sg5
I0
ssV64o9oa
p2880
(dp2881
g3
I0
sg4
I0
sg5
I1
ssV673w60
p2882
(dp2883
g3
I0
sg4
I0
sg5
I4
ssV66utt1
p2884
(dp2885
g3
I2
sg4
I0
sg5
I8
ssV64a1wa
p2886
(dp2887
g3
I1
sg4
I0
sg5
I8
ssV62wvg3
p2888
(dp2889
g3
I1
sg4
I0
sg5
I9
ssV65k360
p2890
(dp2891
g3
I1
sg4
I0
sg5
I1
ssV65r1cx
p2892
(dp2893
g3
I0
sg4
I0
sg5
I1
ssV66f7hj
p2894
(dp2895
g3
I2
sg4
I0
sg5
I14
ssV65il8o
p2896
(dp2897
g3
I0
sg4
I0
sg5
I0
ssV66hew5
p2898
(dp2899
g3
I1
sg4
I0
sg5
I17
ssV65vqcy
p2900
(dp2901
g3
I2
sg4
I0
sg5
I3
ssV65mm8c
p2902
(dp2903
g3
I1
sg4
I0
sg5
I31
ssV1id4cb
p2904
(dp2905
g3
I0
sg4
I0
sg5
I1
ssV65w9aw
p2906
(dp2907
g3
I0
sg4
I0
sg5
I0
ssV65z0e6
p2908
(dp2909
g3
I0
sg4
I0
sg5
I2
ssV66k8t8
p2910
(dp2911
g3
I1
sg4
I0
sg5
I3
ssV656jhl
p2912
(dp2913
g3
I12
sg4
I0
sg5
I18
ssV1ill4b
p2914
(dp2915
g3
I5
sg4
I0
sg5
I28
ssV66k2yw
p2916
(dp2917
g3
I1
sg4
I0
sg5
I3
ssV660gpg
p2918
(dp2919
g3
I0
sg4
I0
sg5
I25
ssV65f6xi
p2920
(dp2921
g3
I3
sg4
I0
sg5
I0
ssV63gelx
p2922
(dp2923
g3
I0
sg4
I0
sg5
I7
ssV64l2gl
p2924
(dp2925
g3
I0
sg4
I0
sg5
I3
ssV65n1xw
p2926
(dp2927
g3
I3
sg4
I0
sg5
I0
ssV65gztk
p2928
(dp2929
g3
I0
sg4
I0
sg5
I2
ssV1g3yec
p2930
(dp2931
g3
I1
sg4
I0
sg5
I34
ssV66kptx
p2932
(dp2933
g3
I1
sg4
I0
sg5
I17
ssV66mu4f
p2934
(dp2935
g3
I27
sg4
I0
sg5
I1747
ssV65c1db
p2936
(dp2937
g3
I1
sg4
I0
sg5
I11
ssV65o08e
p2938
(dp2939
g3
I4
sg4
I0
sg5
I2
ssV63hkzm
p2940
(dp2941
g3
I3
sg4
I0
sg5
I10
ssV1ie825
p2942
(dp2943
g3
I1
sg4
I0
sg5
I10
ssV1igzl1
p2944
(dp2945
g3
I5
sg4
I0
sg5
I26
ssV63vmvi
p2946
(dp2947
g3
I3
sg4
I0
sg5
I0
ssV651ofq
p2948
(dp2949
g3
I0
sg4
I0
sg5
I0
ssV2va7zd
p2950
(dp2951
g3
I1
sg4
I0
sg5
I6
ssV65hwbs
p2952
(dp2953
g3
I0
sg4
I0
sg5
I0
ssV65rq5y
p2954
(dp2955
g3
I0
sg4
I0
sg5
I2
ssV2v3ong
p2956
(dp2957
g3
I1
sg4
I0
sg5
I56
ssV668xlq
p2958
(dp2959
g3
I0
sg4
I0
sg5
I1
ssV65oaqi
p2960
(dp2961
g3
I4
sg4
I0
sg5
I1
ssV2v7ecc
p2962
(dp2963
g3
I0
sg4
I0
sg5
I1
ssV663fxc
p2964
(dp2965
g3
I0
sg4
I0
sg5
I90
ssV65wfad
p2966
(dp2967
g3
I4
sg4
I0
sg5
I7
ssV63tfwy
p2968
(dp2969
g3
I0
sg4
I0
sg5
I1
ssV65ohsc
p2970
(dp2971
g3
I2
sg4
I0
sg5
I0
ssV65wppx
p2972
(dp2973
g3
I0
sg4
I0
sg5
I0
ssV65okgt
p2974
(dp2975
g3
I2
sg4
I0
sg5
I14
ssV65j1m6
p2976
(dp2977
g3
I4
sg4
I0
sg5
I0
ssV65kw34
p2978
(dp2979
g3
I1
sg4
I0
sg5
I0
ssV65lo6g
p2980
(dp2981
g3
I0
sg4
I0
sg5
I6
ssV64x5gd
p2982
(dp2983
g3
I91
sg4
I0
sg5
I5656
ssV65rg93
p2984
(dp2985
g3
I2
sg4
I0
sg5
I24
ssV66ps9e
p2986
(dp2987
g3
I2
sg4
I0
sg5
I58
ssV65nstl
p2988
(dp2989
g3
I0
sg4
I0
sg5
I13
ssV65evti
p2990
(dp2991
g3
I1
sg4
I0
sg5
I6
ssV63iv6q
p2992
(dp2993
g3
I1
sg4
I0
sg5
I1
ssV64oicl
p2994
(dp2995
g3
I1
sg4
I0
sg5
I5
ssV65gd0v
p2996
(dp2997
g3
I4
sg4
I0
sg5
I16
ssV65s4u7
p2998
(dp2999
g3
I4
sg4
I0
sg5
I2
ssV62fjtw
p3000
(dp3001
g3
I3
sg4
I0
sg5
I42
ssV65rxwq
p3002
(dp3003
g3
I13
sg4
I0
sg5
I251
ssV65u1ny
p3004
(dp3005
g3
I0
sg4
I0
sg5
I1
ssV65qtme
p3006
(dp3007
g3
I7
sg4
I0
sg5
I4
ssV65jsib
p3008
(dp3009
g3
I1
sg4
I0
sg5
I0
ssV62yij7
p3010
(dp3011
g3
I0
sg4
I0
sg5
I6
ssV65qvc0
p3012
(dp3013
g3
I2
sg4
I0
sg5
I0
ssV634fig
p3014
(dp3015
g3
I1
sg4
I0
sg5
I13
ssV65enkm
p3016
(dp3017
g3
I0
sg4
I0
sg5
I0
ssV65i90z
p3018
(dp3019
g3
I0
sg4
I0
sg5
I1
ssV62oa5o
p3020
(dp3021
g3
I0
sg4
I0
sg5
I11
ssV65r583
p3022
(dp3023
g3
I6
sg4
I0
sg5
I253
ssV6426tz
p3024
(dp3025
g3
I48
sg4
I0
sg5
I1814
ssV637yth
p3026
(dp3027
g3
I16
sg4
I0
sg5
I394
ssV65voec
p3028
(dp3029
g3
I7
sg4
I0
sg5
I2
ssV65m17p
p3030
(dp3031
g3
I1
sg4
I0
sg5
I1
ssV1iiasx
p3032
(dp3033
g3
I10
sg4
I0
sg5
I61
ssV65tose
p3034
(dp3035
g3
I1
sg4
I0
sg5
I0
ssV1hzpue
p3036
(dp3037
g3
I3
sg4
I0
sg5
I28
ssV65hydh
p3038
(dp3039
g3
I6
sg4
I0
sg5
I0
ssV62mdw6
p3040
(dp3041
g3
I0
sg4
I0
sg5
I1
ssV65fyj3
p3042
(dp3043
g3
I1
sg4
I0
sg5
I3
ssV66hr38
p3044
(dp3045
g3
I6
sg4
I0
sg5
I10
ssV65lomu
p3046
(dp3047
g3
I4
sg4
I0
sg5
I9
ssV65r2ah
p3048
(dp3049
g3
I1
sg4
I0
sg5
I0
ssV1hmw83
p3050
(dp3051
g3
I2
sg4
I0
sg5
I36
ssV65l77x
p3052
(dp3053
g3
I6
sg4
I0
sg5
I2
ssV65q2oa
p3054
(dp3055
g3
I4
sg4
I0
sg5
I94
ssV65h43r
p3056
(dp3057
g3
I0
sg4
I0
sg5
I3
ssV65mcmy
p3058
(dp3059
g3
I0
sg4
I0
sg5
I2
ssV1gmuf7
p3060
(dp3061
g3
I0
sg4
I0
sg5
I1
ssV62l09w
p3062
(dp3063
g3
I0
sg4
I0
sg5
I2
ssV66wfuw
p3064
(dp3065
g3
I1
sg4
I0
sg5
I51
ssV65z72a
p3066
(dp3067
g3
I1
sg4
I0
sg5
I6
ssV65rvu6
p3068
(dp3069
g3
I6
sg4
I0
sg5
I491
ssV2ve96o
p3070
(dp3071
g3
I0
sg4
I0
sg5
I6
ssV65t3nz
p3072
(dp3073
g3
I0
sg4
I0
sg5
I0
ssV65lw0m
p3074
(dp3075
g3
I0
sg4
I0
sg5
I2
ssV2v3th2
p3076
(dp3077
g3
I1
sg4
I0
sg5
I25
ssV66p026
p3078
(dp3079
g3
I0
sg4
I0
sg5
I0
ssV65lw0f
p3080
(dp3081
g3
I18
sg4
I0
sg5
I325
ssV62ngqu
p3082
(dp3083
g3
I0
sg4
I0
sg5
I7
ssV65i2lr
p3084
(dp3085
g3
I2
sg4
I0
sg5
I1
ssV65i903
p3086
(dp3087
g3
I0
sg4
I0
sg5
I1
ssV64velr
p3088
(dp3089
g3
I0
sg4
I0
sg5
I1
ssV65uxxd
p3090
(dp3091
g3
I0
sg4
I0
sg5
I1
ssV62e3y4
p3092
(dp3093
g3
I0
sg4
I0
sg5
I0
ssV65wu0k
p3094
(dp3095
g3
I1
sg4
I0
sg5
I6
ssV634i3t
p3096
(dp3097
g3
I1
sg4
I0
sg5
I0
ssV65hs1i
p3098
(dp3099
g3
I5
sg4
I0
sg5
I11
ssV1epa7w
p3100
(dp3101
g3
I4
sg4
I0
sg5
I27
ssV65wtfk
p3102
(dp3103
g3
I6
sg4
I0
sg5
I60
ssV646y0u
p3104
(dp3105
g3
I99
sg4
I0
sg5
I3251
ssV65l60l
p3106
(dp3107
g3
I0
sg4
I0
sg5
I1
ssV2vc3bl
p3108
(dp3109
g3
I1
sg4
I0
sg5
I4
ssV66rd7b
p3110
(dp3111
g3
I0
sg4
I0
sg5
I11
ssV66gj97
p3112
(dp3113
g3
I3
sg4
I0
sg5
I35
ssV65k5y2
p3114
(dp3115
g3
I3
sg4
I0
sg5
I0
ssV65ndc6
p3116
(dp3117
g3
I0
sg4
I0
sg5
I0
ssV65pfca
p3118
(dp3119
g3
I32
sg4
I0
sg5
I514
ssV65ubyu
p3120
(dp3121
g3
I0
sg4
I0
sg5
I2
ssV65rraj
p3122
(dp3123
g3
I4
sg4
I0
sg5
I6
ssV65yueu
p3124
(dp3125
g3
I0
sg4
I0
sg5
I10
ssV64oaai
p3126
(dp3127
g3
I0
sg4
I0
sg5
I8
ssV63vg1x
p3128
(dp3129
g3
I0
sg4
I0
sg5
I0
ssV65unsq
p3130
(dp3131
g3
I0
sg4
I0
sg5
I2
ssV65jchw
p3132
(dp3133
g3
I10
sg4
I0
sg5
I76
ssV66dfjj
p3134
(dp3135
g3
I1
sg4
I0
sg5
I0
ssV65ftmg
p3136
(dp3137
g3
I1
sg4
I0
sg5
I6
ssV65rraz
p3138
(dp3139
g3
I0
sg4
I0
sg5
I8
ssV65m2wl
p3140
(dp3141
g3
I7
sg4
I0
sg5
I3
ssV66e97q
p3142
(dp3143
g3
I0
sg4
I0
sg5
I1
ssV65m95q
p3144
(dp3145
g3
I1
sg4
I0
sg5
I0
ssV65mg4k
p3146
(dp3147
g3
I4
sg4
I0
sg5
I0
ssV65kpc9
p3148
(dp3149
g3
I2
sg4
I0
sg5
I0
ssV1g5e95
p3150
(dp3151
g3
I0
sg4
I0
sg5
I1
ssV6663ps
p3152
(dp3153
g3
I2
sg4
I0
sg5
I8
ssV64sqsg
p3154
(dp3155
g3
I0
sg4
I0
sg5
I0
ssV66ds6s
p3156
(dp3157
g3
I4
sg4
I0
sg5
I15
ssV65hyli
p3158
(dp3159
g3
I6
sg4
I0
sg5
I90
ssV1ibiff
p3160
(dp3161
g3
I15
sg4
I0
sg5
I90
ssV65p9qj
p3162
(dp3163
g3
I1
sg4
I0
sg5
I1
ssV65oqma
p3164
(dp3165
g3
I0
sg4
I0
sg5
I13
ssV65fxl2
p3166
(dp3167
g3
I18
sg4
I0
sg5
I26
ssV65kxe5
p3168
(dp3169
g3
I2
sg4
I0
sg5
I1
ssV64s1qh
p3170
(dp3171
g3
I2
sg4
I0
sg5
I4
ssV1ii79v
p3172
(dp3173
g3
I5
sg4
I0
sg5
I13
ssV62mpqe
p3174
(dp3175
g3
I0
sg4
I0
sg5
I3
ssV65khpt
p3176
(dp3177
g3
I17
sg4
I0
sg5
I336
ssV2vhp94
p3178
(dp3179
g3
I0
sg4
I0
sg5
I5
ssV65ihuf
p3180
(dp3181
g3
I1
sg4
I0
sg5
I13
ssV653zcf
p3182
(dp3183
g3
I11
sg4
I0
sg5
I25
ssV2v4iwg
p3184
(dp3185
g3
I1
sg4
I0
sg5
I1
ssV66ou0h
p3186
(dp3187
g3
I0
sg4
I0
sg5
I5
ssV668nlg
p3188
(dp3189
g3
I1
sg4
I0
sg5
I5
ssV65fxb7
p3190
(dp3191
g3
I0
sg4
I0
sg5
I1
ssV659txf
p3192
(dp3193
g3
I1
sg4
I0
sg5
I5
ssV65gibb
p3194
(dp3195
g3
I0
sg4
I0
sg5
I1
ssV65yue9
p3196
(dp3197
g3
I4
sg4
I0
sg5
I21
ssV66hz86
p3198
(dp3199
g3
I0
sg4
I0
sg5
I0
ssV64xp05
p3200
(dp3201
g3
I0
sg4
I0
sg5
I1
ssV65ft2y
p3202
(dp3203
g3
I3
sg4
I0
sg5
I12
ssV65o7em
p3204
(dp3205
g3
I0
sg4
I0
sg5
I0
ssV64mt2u
p3206
(dp3207
g3
I0
sg4
I0
sg5
I33
ssV64p9y9
p3208
(dp3209
g3
I5
sg4
I0
sg5
I89
ssV6661m2
p3210
(dp3211
g3
I0
sg4
I0
sg5
I1
ssV65hyoo
p3212
(dp3213
g3
I0
sg4
I0
sg5
I3
ssV65l2qn
p3214
(dp3215
g3
I1
sg4
I0
sg5
I3
ssVxjp1k
p3216
(dp3217
g3
I0
sg4
I0
sg5
I0
ssV2vcq9m
p3218
(dp3219
g3
I2
sg4
I0
sg5
I4
ssV64wsdi
p3220
(dp3221
g3
I2
sg4
I0
sg5
I18
ssV633pj4
p3222
(dp3223
g3
I1
sg4
I0
sg5
I4
ssV66rb9u
p3224
(dp3225
g3
I0
sg4
I0
sg5
I4
ssV65lqqh
p3226
(dp3227
g3
I0
sg4
I0
sg5
I0
ssV2vblb6
p3228
(dp3229
g3
I18
sg4
I0
sg5
I136
ssV65noj7
p3230
(dp3231
g3
I1
sg4
I0
sg5
I5
ssV65gfgs
p3232
(dp3233
g3
I0
sg4
I0
sg5
I1
ssV65jg6u
p3234
(dp3235
g3
I3
sg4
I0
sg5
I5
ssV64plp0
p3236
(dp3237
g3
I0
sg4
I0
sg5
I12
ssV65i69y
p3238
(dp3239
g3
I0
sg4
I0
sg5
I0
ssV64oy58
p3240
(dp3241
g3
I1
sg4
I0
sg5
I3
ssV64ygvn
p3242
(dp3243
g3
I0
sg4
I0
sg5
I11
ssV65rhyk
p3244
(dp3245
g3
I0
sg4
I0
sg5
I1
ssV66c5qe
p3246
(dp3247
g3
I13
sg4
I0
sg5
I51
ssV65kvsj
p3248
(dp3249
g3
I14
sg4
I0
sg5
I227
ssV65wl5m
p3250
(dp3251
g3
I5
sg4
I0
sg5
I1
ssVxk2iv
p3252
(dp3253
g3
I8
sg4
I0
sg5
I351
ssV65jwqg
p3254
(dp3255
g3
I1
sg4
I0
sg5
I1
ssV64j7bf
p3256
(dp3257
g3
I92
sg4
I0
sg5
I4450
ssV64j3a8
p3258
(dp3259
g3
I0
sg4
I0
sg5
I4
ssV65rqcd
p3260
(dp3261
g3
I0
sg4
I0
sg5
I0
ssV65nj6c
p3262
(dp3263
g3
I3
sg4
I0
sg5
I9
ssV65qjln
p3264
(dp3265
g3
I0
sg4
I0
sg5
I0
ssV65y46g
p3266
(dp3267
g3
I0
sg4
I0
sg5
I1
ssV65ey7u
p3268
(dp3269
g3
I3
sg4
I0
sg5
I6
ssV65u6a5
p3270
(dp3271
g3
I0
sg4
I0
sg5
I2
ssV65kysv
p3272
(dp3273
g3
I0
sg4
I0
sg5
I5
ssV65pula
p3274
(dp3275
g3
I0
sg4
I0
sg5
I8
ssV65q45r
p3276
(dp3277
g3
I1
sg4
I0
sg5
I0
ssV2vhucp
p3278
(dp3279
g3
I0
sg4
I0
sg5
I0
ssV65qaxw
p3280
(dp3281
g3
I0
sg4
I0
sg5
I1
ssV65prbv
p3282
(dp3283
g3
I0
sg4
I0
sg5
I1
ssV63g20h
p3284
(dp3285
g3
I0
sg4
I0
sg5
I1
ssV64n121
p3286
(dp3287
g3
I0
sg4
I0
sg5
I6
ssV64njf3
p3288
(dp3289
g3
I0
sg4
I0
sg5
I2
ssV2v9jgt
p3290
(dp3291
g3
I0
sg4
I0
sg5
I3
ssV1hm4yg
p3292
(dp3293
g3
I0
sg4
I0
sg5
I17
ssV65rdwk
p3294
(dp3295
g3
I1
sg4
I0
sg5
I1
ssV62pjz9
p3296
(dp3297
g3
I0
sg4
I0
sg5
I10
ssV65ops9
p3298
(dp3299
g3
I0
sg4
I0
sg5
I24
ssV65km2e
p3300
(dp3301
g3
I2
sg4
I0
sg5
I0
ssV65q69k
p3302
(dp3303
g3
I0
sg4
I0
sg5
I0
ssV1hllqr
p3304
(dp3305
g3
I1
sg4
I0
sg5
I2
ssV65jm8u
p3306
(dp3307
g3
I1
sg4
I0
sg5
I11
ssV65q69o
p3308
(dp3309
g3
I0
sg4
I0
sg5
I3
ssV6310tz
p3310
(dp3311
g3
I0
sg4
I0
sg5
I10
ssV1h8aw8
p3312
(dp3313
g3
I4
sg4
I0
sg5
I19
ssV65h2ei
p3314
(dp3315
g3
I0
sg4
I0
sg5
I1
ssV65kyam
p3316
(dp3317
g3
I1
sg4
I0
sg5
I2
ssV2v54q2
p3318
(dp3319
g3
I0
sg4
I0
sg5
I3
ssV65r8jv
p3320
(dp3321
g3
I0
sg4
I0
sg5
I1
ssV65pcze
p3322
(dp3323
g3
I0
sg4
I0
sg5
I1
ssV65hl4h
p3324
(dp3325
g3
I0
sg4
I0
sg5
I0
ssVxk9eb
p3326
(dp3327
g3
I11
sg4
I0
sg5
I49
ssV65q3zp
p3328
(dp3329
g3
I1
sg4
I0
sg5
I1
ssV65m0y1
p3330
(dp3331
g3
I0
sg4
I0
sg5
I3
ssV62vlpa
p3332
(dp3333
g3
I6
sg4
I0
sg5
I85
ssV63qx45
p3334
(dp3335
g3
I0
sg4
I0
sg5
I8
ssV65xm4r
p3336
(dp3337
g3
I16
sg4
I0
sg5
I83
ssV6516dk
p3338
(dp3339
g3
I2
sg4
I0
sg5
I10
ssV65bxgc
p3340
(dp3341
g3
I0
sg4
I0
sg5
I2
ssV64xqsj
p3342
(dp3343
g3
I1
sg4
I0
sg5
I3
ssV65t5ck
p3344
(dp3345
g3
I1
sg4
I0
sg5
I0
ssV65mjsr
p3346
(dp3347
g3
I1
sg4
I0
sg5
I4
ssV65parz
p3348
(dp3349
g3
I81
sg4
I0
sg5
I6112
ssVxkmfr
p3350
(dp3351
g3
I3
sg4
I0
sg5
I0
ssV65s3ou
p3352
(dp3353
g3
I1
sg4
I0
sg5
I10
ssV65oow0
p3354
(dp3355
g3
I1
sg4
I0
sg5
I7
ssV1ieyeo
p3356
(dp3357
g3
I0
sg4
I0
sg5
I1
ssV65ffd2
p3358
(dp3359
g3
I1
sg4
I0
sg5
I0
ssV65r5qt
p3360
(dp3361
g3
I0
sg4
I0
sg5
I3
ssV644v4m
p3362
(dp3363
g3
I0
sg4
I0
sg5
I3
ssV65uwmz
p3364
(dp3365
g3
I25
sg4
I0
sg5
I230
ssV652lpy
p3366
(dp3367
g3
I0
sg4
I0
sg5
I26
ssV65p63i
p3368
(dp3369
g3
I0
sg4
I0
sg5
I1
ssV65hymz
p3370
(dp3371
g3
I0
sg4
I0
sg5
I5
ssVxk7d5
p3372
(dp3373
g3
I5
sg4
I0
sg5
I39
ssV65ssc7
p3374
(dp3375
g3
I0
sg4
I0
sg5
I1
ssV65rxjs
p3376
(dp3377
g3
I3
sg4
I0
sg5
I1
ssV65nvie
p3378
(dp3379
g3
I2
sg4
I0
sg5
I33
ssV1ijwe0
p3380
(dp3381
g3
I0
sg4
I0
sg5
I9
ssV64ymkv
p3382
(dp3383
g3
I0
sg4
I0
sg5
I6
ssV64ejt3
p3384
(dp3385
g3
I0
sg4
I0
sg5
I7
ssV1g4cxl
p3386
(dp3387
g3
I1
sg4
I0
sg5
I82
ssV65p4ze
p3388
(dp3389
g3
I0
sg4
I0
sg5
I0
ssV65ju8b
p3390
(dp3391
g3
I1
sg4
I0
sg5
I5
ssV65h6ym
p3392
(dp3393
g3
I1
sg4
I0
sg5
I5
ssV65leg5
p3394
(dp3395
g3
I3
sg4
I0
sg5
I135
ssV662ts8
p3396
(dp3397
g3
I0
sg4
I0
sg5
I0
ssV65jaia
p3398
(dp3399
g3
I1
sg4
I0
sg5
I0
ssV661mag
p3400
(dp3401
g3
I3
sg4
I0
sg5
I19
ssV62t10q
p3402
(dp3403
g3
I7
sg4
I0
sg5
I7
ssVxkn4e
p3404
(dp3405
g3
I1
sg4
I0
sg5
I59
ssV65wpqj
p3406
(dp3407
g3
I0
sg4
I0
sg5
I0
ssV65jaif
p3408
(dp3409
g3
I0
sg4
I0
sg5
I0
ssV65s501
p3410
(dp3411
g3
I1
sg4
I0
sg5
I6
ssV1idfbq
p3412
(dp3413
g3
I0
sg4
I0
sg5
I28
ssV2v1ytk
p3414
(dp3415
g3
I0
sg4
I0
sg5
I1
ssV65kcsm
p3416
(dp3417
g3
I0
sg4
I0
sg5
I1
ssV64qgcx
p3418
(dp3419
g3
I1
sg4
I0
sg5
I2
ssV65pe5a
p3420
(dp3421
g3
I0
sg4
I0
sg5
I1
ssV65nrqw
p3422
(dp3423
g3
I4
sg4
I0
sg5
I0
ssV6336xp
p3424
(dp3425
g3
I8
sg4
I0
sg5
I252
ssV63d8lc
p3426
(dp3427
g3
I43
sg4
I0
sg5
I2395
ssV65fhpe
p3428
(dp3429
g3
I0
sg4
I0
sg5
I2
ssV67077m
p3430
(dp3431
g3
I2
sg4
I0
sg5
I60
ssV65orgr
p3432
(dp3433
g3
I0
sg4
I0
sg5
I1
ssV66g9yo
p3434
(dp3435
g3
I1
sg4
I0
sg5
I6
ssV65il7i
p3436
(dp3437
g3
I2
sg4
I0
sg5
I3
ssV65h6km
p3438
(dp3439
g3
I9
sg4
I0
sg5
I0
ssV65cj33
p3440
(dp3441
g3
I0
sg4
I0
sg5
I3
ssV1idcf3
p3442
(dp3443
g3
I0
sg4
I0
sg5
I16
ssV65hmmx
p3444
(dp3445
g3
I0
sg4
I0
sg5
I3
ssV63ihwz
p3446
(dp3447
g3
I0
sg4
I0
sg5
I4
ssV65w3cn
p3448
(dp3449
g3
I0
sg4
I0
sg5
I1
ssV65frud
p3450
(dp3451
g3
I0
sg4
I0
sg5
I1
ssV649cic
p3452
(dp3453
g3
I4
sg4
I0
sg5
I2
ssV2vj74y
p3454
(dp3455
g3
I0
sg4
I0
sg5
I0
ssV63raew
p3456
(dp3457
g3
I9
sg4
I0
sg5
I44
ssV65cl3i
p3458
(dp3459
g3
I3
sg4
I0
sg5
I8
ssV65fpan
p3460
(dp3461
g3
I0
sg4
I0
sg5
I1
ssV659ack
p3462
(dp3463
g3
I0
sg4
I0
sg5
I10
ssV65irms
p3464
(dp3465
g3
I1
sg4
I0
sg5
I5
ssV65fv6c
p3466
(dp3467
g3
I7
sg4
I0
sg5
I44
ssV636f78
p3468
(dp3469
g3
I6
sg4
I0
sg5
I170
ssV65n4ag
p3470
(dp3471
g3
I1
sg4
I0
sg5
I0
ssV65guzu
p3472
(dp3473
g3
I1
sg4
I0
sg5
I0
ssV65ssci
p3474
(dp3475
g3
I0
sg4
I0
sg5
I10
ssV65s435
p3476
(dp3477
g3
I11
sg4
I0
sg5
I35
ssV65r8xj
p3478
(dp3479
g3
I0
sg4
I0
sg5
I2
ssV2v81m0
p3480
(dp3481
g3
I0
sg4
I0
sg5
I0
ssV65s430
p3482
(dp3483
g3
I1
sg4
I0
sg5
I0
ssV65cc4c
p3484
(dp3485
g3
I1
sg4
I0
sg5
I8
ssV1ie10o
p3486
(dp3487
g3
I0
sg4
I0
sg5
I16
ssV65q85f
p3488
(dp3489
g3
I1
sg4
I0
sg5
I1
ssV65ent0
p3490
(dp3491
g3
I0
sg4
I0
sg5
I2
ssV65ibrk
p3492
(dp3493
g3
I39
sg4
I0
sg5
I626
ssV65ham4
p3494
(dp3495
g3
I0
sg4
I0
sg5
I1
ssV65khjk
p3496
(dp3497
g3
I0
sg4
I0
sg5
I0
ssV66emrt
p3498
(dp3499
g3
I1
sg4
I0
sg5
I33
ssV662f2z
p3500
(dp3501
g3
I0
sg4
I0
sg5
I7
ssV65pehm
p3502
(dp3503
g3
I0
sg4
I0
sg5
I3
ssV646j5y
p3504
(dp3505
g3
I1
sg4
I0
sg5
I0
ssV65qepl
p3506
(dp3507
g3
I3
sg4
I0
sg5
I4
ssV65elac
p3508
(dp3509
g3
I0
sg4
I0
sg5
I1
ssV65sfct
p3510
(dp3511
g3
I3
sg4
I0
sg5
I7
ssV1g7gb6
p3512
(dp3513
g3
I1
sg4
I0
sg5
I0
ssV65o6bj
p3514
(dp3515
g3
I4
sg4
I0
sg5
I6
ssV64bhk4
p3516
(dp3517
g3
I1
sg4
I0
sg5
I5
ssV65ge2s
p3518
(dp3519
g3
I2
sg4
I0
sg5
I2
ssV65kieg
p3520
(dp3521
g3
I1
sg4
I0
sg5
I5
ssV65r1nv
p3522
(dp3523
g3
I0
sg4
I0
sg5
I0
ssV65nlm2
p3524
(dp3525
g3
I2
sg4
I0
sg5
I0
ssV65lho0
p3526
(dp3527
g3
I0
sg4
I0
sg5
I4
ssV65ht3v
p3528
(dp3529
g3
I1
sg4
I0
sg5
I0
ssV63pqzb
p3530
(dp3531
g3
I1
sg4
I0
sg5
I4
ssV65gddu
p3532
(dp3533
g3
I0
sg4
I0
sg5
I5
ssV65ezw5
p3534
(dp3535
g3
I6
sg4
I0
sg5
I29
ssV65fhf2
p3536
(dp3537
g3
I0
sg4
I0
sg5
I8
ssV65r9n5
p3538
(dp3539
g3
I1
sg4
I0
sg5
I0
ssV63owi5
p3540
(dp3541
g3
I1
sg4
I0
sg5
I7
ssV65nuwg
p3542
(dp3543
g3
I5
sg4
I0
sg5
I17
ssV66w1pd
p3544
(dp3545
g3
I1
sg4
I0
sg5
I7
ssV65ph82
p3546
(dp3547
g3
I0
sg4
I0
sg5
I4
ssV65nkie
p3548
(dp3549
g3
I0
sg4
I0
sg5
I2
ssV64kjs8
p3550
(dp3551
g3
I1
sg4
I0
sg5
I8
ssV65wkrc
p3552
(dp3553
g3
I3
sg4
I0
sg5
I10
ssV65kmum
p3554
(dp3555
g3
I1
sg4
I0
sg5
I1
ssV66oo1s
p3556
(dp3557
g3
I0
sg4
I0
sg5
I16
ssV65ktd1
p3558
(dp3559
g3
I2
sg4
I0
sg5
I2
ssV65nkim
p3560
(dp3561
g3
I0
sg4
I0
sg5
I1
ssV65k1nt
p3562
(dp3563
g3
I2
sg4
I0
sg5
I0
ssV65m76g
p3564
(dp3565
g3
I0
sg4
I0
sg5
I0
ssV63ie1v
p3566
(dp3567
g3
I1
sg4
I0
sg5
I5
ssV668d82
p3568
(dp3569
g3
I1
sg4
I0
sg5
I2
ssV65n4f3
p3570
(dp3571
g3
I1
sg4
I0
sg5
I8
ssV66vaie
p3572
(dp3573
g3
I0
sg4
I0
sg5
I0
ssV660lme
p3574
(dp3575
g3
I0
sg4
I0
sg5
I7
ssV65n6yo
p3576
(dp3577
g3
I1
sg4
I0
sg5
I3
ssV65f0a8
p3578
(dp3579
g3
I0
sg4
I0
sg5
I0
ssV65mdpk
p3580
(dp3581
g3
I3
sg4
I0
sg5
I0
ssV64v2uy
p3582
(dp3583
g3
I1
sg4
I0
sg5
I16
ssV65v924
p3584
(dp3585
g3
I34
sg4
I0
sg5
I314
ssV65h6nk
p3586
(dp3587
g3
I2
sg4
I0
sg5
I0
ssV65ro6x
p3588
(dp3589
g3
I0
sg4
I0
sg5
I2
ssV65tdjc
p3590
(dp3591
g3
I5
sg4
I0
sg5
I5
ssV65oktk
p3592
(dp3593
g3
I0
sg4
I0
sg5
I3
ssV65pq5t
p3594
(dp3595
g3
I2
sg4
I0
sg5
I1
ssV65s28f
p3596
(dp3597
g3
I28
sg4
I0
sg5
I126
ssV63m3id
p3598
(dp3599
g3
I2
sg4
I0
sg5
I37
ssV65jomr
p3600
(dp3601
g3
I0
sg4
I0
sg5
I1
ssVxkdqp
p3602
(dp3603
g3
I17
sg4
I0
sg5
I136
ssV63w1x3
p3604
(dp3605
g3
I0
sg4
I0
sg5
I4
ssV65f0sw
p3606
(dp3607
g3
I3
sg4
I0
sg5
I5
ssV65mpyy
p3608
(dp3609
g3
I1
sg4
I0
sg5
I2
ssV63afto
p3610
(dp3611
g3
I0
sg4
I0
sg5
I35
ssV672zyl
p3612
(dp3613
g3
I1
sg4
I0
sg5
I2
ssV1ep7lo
p3614
(dp3615
g3
I0
sg4
I0
sg5
I3
ssV66lptt
p3616
(dp3617
g3
I1
sg4
I0
sg5
I1
ssV65f8mz
p3618
(dp3619
g3
I0
sg4
I0
sg5
I1
ssV65nie9
p3620
(dp3621
g3
I0
sg4
I0
sg5
I1
ssV65p6zl
p3622
(dp3623
g3
I1
sg4
I0
sg5
I0
ssV65jiif
p3624
(dp3625
g3
I0
sg4
I0
sg5
I0
ssV65f2ca
p3626
(dp3627
g3
I3
sg4
I0
sg5
I3
ssV1ib4kb
p3628
(dp3629
g3
I2
sg4
I0
sg5
I40
ssV65nb7k
p3630
(dp3631
g3
I0
sg4
I0
sg5
I0
ssV65iy1k
p3632
(dp3633
g3
I0
sg4
I0
sg5
I0
ssV2v5gvr
p3634
(dp3635
g3
I0
sg4
I0
sg5
I3
ssV65rxx6
p3636
(dp3637
g3
I73
sg4
I0
sg5
I1118
ssV65pju9
p3638
(dp3639
g3
I0
sg4
I0
sg5
I0
ssV65pzbb
p3640
(dp3641
g3
I0
sg4
I0
sg5
I55
ssV648i4a
p3642
(dp3643
g3
I3
sg4
I0
sg5
I22
ssV66monm
p3644
(dp3645
g3
I0
sg4
I0
sg5
I49
ssV2v9of3
p3646
(dp3647
g3
I0
sg4
I0
sg5
I0
ssV65klyo
p3648
(dp3649
g3
I2
sg4
I0
sg5
I10
ssVxkauh
p3650
(dp3651
g3
I22
sg4
I0
sg5
I166
ssV65lp08
p3652
(dp3653
g3
I14
sg4
I0
sg5
I482
ssV65ll6o
p3654
(dp3655
g3
I0
sg4
I0
sg5
I1
ssV65vfme
p3656
(dp3657
g3
I115
sg4
I0
sg5
I5021
ssV6626b1
p3658
(dp3659
g3
I0
sg4
I0
sg5
I2
ssV64xswq
p3660
(dp3661
g3
I0
sg4
I0
sg5
I9
ssV65j9x0
p3662
(dp3663
g3
I45
sg4
I0
sg5
I723
ssV65q7q9
p3664
(dp3665
g3
I0
sg4
I0
sg5
I0
ssV65spbf
p3666
(dp3667
g3
I2
sg4
I0
sg5
I15
ssV1gbbx6
p3668
(dp3669
g3
I3
sg4
I0
sg5
I55
ssV65kf5t
p3670
(dp3671
g3
I0
sg4
I0
sg5
I0
ssV2vaxpr
p3672
(dp3673
g3
I3
sg4
I0
sg5
I0
ssV2v9604
p3674
(dp3675
g3
I1
sg4
I0
sg5
I8
ssV65jg7u
p3676
(dp3677
g3
I0
sg4
I0
sg5
I0
ssVxjt8f
p3678
(dp3679
g3
I2
sg4
I0
sg5
I6
ssV65mxkk
p3680
(dp3681
g3
I1
sg4
I0
sg5
I28
ssV65xtzm
p3682
(dp3683
g3
I2
sg4
I0
sg5
I5
ssV65jh0t
p3684
(dp3685
g3
I1
sg4
I0
sg5
I13
ssV65qfqk
p3686
(dp3687
g3
I9
sg4
I0
sg5
I33
ssV65hi8d
p3688
(dp3689
g3
I4
sg4
I0
sg5
I7
ssV65war6
p3690
(dp3691
g3
I29
sg4
I0
sg5
I1077
ssV65mxkq
p3692
(dp3693
g3
I0
sg4
I0
sg5
I4
ssV64lwu4
p3694
(dp3695
g3
I1
sg4
I0
sg5
I2
ssV65qt6s
p3696
(dp3697
g3
I0
sg4
I0
sg5
I3
ssV65icqv
p3698
(dp3699
g3
I0
sg4
I0
sg5
I0
ssV65i80t
p3700
(dp3701
g3
I0
sg4
I0
sg5
I0
ssV65f73x
p3702
(dp3703
g3
I4
sg4
I0
sg5
I58
ssV64xwqn
p3704
(dp3705
g3
I0
sg4
I0
sg5
I1
ssV65pn2b
p3706
(dp3707
g3
I0
sg4
I0
sg5
I0
ssV64z5sf
p3708
(dp3709
g3
I0
sg4
I0
sg5
I1
ssV65n460
p3710
(dp3711
g3
I2
sg4
I0
sg5
I0
ssV66so4s
p3712
(dp3713
g3
I0
sg4
I0
sg5
I14
ssV66xa93
p3714
(dp3715
g3
I10
sg4
I0
sg5
I231
ssV65rn1f
p3716
(dp3717
g3
I0
sg4
I0
sg5
I1
ssV6745ij
p3718
(dp3719
g3
I0
sg4
I0
sg5
I1
ssV65gd1w
p3720
(dp3721
g3
I5
sg4
I0
sg5
I2
ssV65njcu
p3722
(dp3723
g3
I1
sg4
I0
sg5
I3
ssV65r8fl
p3724
(dp3725
g3
I3
sg4
I0
sg5
I30
ssV63kpyz
p3726
(dp3727
g3
I2
sg4
I0
sg5
I1
ssV65laj7
p3728
(dp3729
g3
I4
sg4
I0
sg5
I33
ssV65s7nk
p3730
(dp3731
g3
I1
sg4
I0
sg5
I1
ssV65gszv
p3732
(dp3733
g3
I5
sg4
I0
sg5
I0
ssV656nox
p3734
(dp3735
g3
I0
sg4
I0
sg5
I12
ssV65wt0e
p3736
(dp3737
g3
I16
sg4
I0
sg5
I461
ssV651o7n
p3738
(dp3739
g3
I3
sg4
I0
sg5
I54
ssV65m16b
p3740
(dp3741
g3
I1
sg4
I0
sg5
I2
ssV65vwdi
p3742
(dp3743
g3
I0
sg4
I0
sg5
I0
ssV1h0v1d
p3744
(dp3745
g3
I0
sg4
I0
sg5
I2
ssV65xbu1
p3746
(dp3747
g3
I0
sg4
I0
sg5
I8
ssV65vfcv
p3748
(dp3749
g3
I0
sg4
I0
sg5
I1
ssV667219
p3750
(dp3751
g3
I7
sg4
I0
sg5
I93
ssV66a4ep
p3752
(dp3753
g3
I0
sg4
I0
sg5
I42
ssV65zicu
p3754
(dp3755
g3
I1
sg4
I0
sg5
I0
ssV65t18n
p3756
(dp3757
g3
I0
sg4
I0
sg5
I2
ssV65mi5a
p3758
(dp3759
g3
I1
sg4
I0
sg5
I0
ssV65haqy
p3760
(dp3761
g3
I3
sg4
I0
sg5
I2
ssV65ng2q
p3762
(dp3763
g3
I4
sg4
I0
sg5
I76
ssV65mi5m
p3764
(dp3765
g3
I0
sg4
I0
sg5
I0
ssV65haqt
p3766
(dp3767
g3
I0
sg4
I0
sg5
I1
ssV1i5soa
p3768
(dp3769
g3
I0
sg4
I0
sg5
I1
ssV66b2bb
p3770
(dp3771
g3
I0
sg4
I0
sg5
I8
ssV62pg1t
p3772
(dp3773
g3
I2
sg4
I0
sg5
I20
ssV660g2v
p3774
(dp3775
g3
I0
sg4
I0
sg5
I3
ssV2v895u
p3776
(dp3777
g3
I0
sg4
I0
sg5
I1
ssV65k4j4
p3778
(dp3779
g3
I2
sg4
I0
sg5
I9
ssV1i06x7
p3780
(dp3781
g3
I2
sg4
I0
sg5
I135
ssV65r8iu
p3782
(dp3783
g3
I10
sg4
I0
sg5
I12
ssV65sfrp
p3784
(dp3785
g3
I1
sg4
I0
sg5
I9
ssV6395jv
p3786
(dp3787
g3
I2
sg4
I0
sg5
I0
ssVxkkwy
p3788
(dp3789
g3
I9
sg4
I0
sg5
I56
ssV65gvei
p3790
(dp3791
g3
I0
sg4
I0
sg5
I1
ssV674uih
p3792
(dp3793
g3
I0
sg4
I0
sg5
I1
ssV65np5f
p3794
(dp3795
g3
I1
sg4
I0
sg5
I1
ssV65ywh6
p3796
(dp3797
g3
I0
sg4
I0
sg5
I0
ssV62gw71
p3798
(dp3799
g3
I4
sg4
I0
sg5
I16
ssV65ixxz
p3800
(dp3801
g3
I2
sg4
I0
sg5
I7
ssV657k3g
p3802
(dp3803
g3
I0
sg4
I0
sg5
I11
ssV2vgob9
p3804
(dp3805
g3
I0
sg4
I0
sg5
I8
ssV65eoyg
p3806
(dp3807
g3
I4
sg4
I0
sg5
I13
ssV65pmmh
p3808
(dp3809
g3
I1
sg4
I0
sg5
I1
ssV65w98x
p3810
(dp3811
g3
I3
sg4
I0
sg5
I45
ssV63z6in
p3812
(dp3813
g3
I0
sg4
I0
sg5
I0
ssV6493ry
p3814
(dp3815
g3
I10
sg4
I0
sg5
I64
ssV2v5qt8
p3816
(dp3817
g3
I2
sg4
I0
sg5
I7
ssV62pkpp
p3818
(dp3819
g3
I0
sg4
I0
sg5
I7
ssV65v45x
p3820
(dp3821
g3
I7
sg4
I0
sg5
I66
ssV65t8tp
p3822
(dp3823
g3
I1
sg4
I0
sg5
I5
ssV64mqma
p3824
(dp3825
g3
I2
sg4
I0
sg5
I13
ssV65lnvp
p3826
(dp3827
g3
I1
sg4
I0
sg5
I5
ssV66ihhs
p3828
(dp3829
g3
I0
sg4
I0
sg5
I2
ssV63j26b
p3830
(dp3831
g3
I1
sg4
I0
sg5
I18
ssV65n919
p3832
(dp3833
g3
I1
sg4
I0
sg5
I0
ssV6304w3
p3834
(dp3835
g3
I3
sg4
I0
sg5
I78
ssV65nfoq
p3836
(dp3837
g3
I0
sg4
I0
sg5
I0
ssV65t0rm
p3838
(dp3839
g3
I4
sg4
I0
sg5
I108
ssV65oi5k
p3840
(dp3841
g3
I2
sg4
I0
sg5
I0
ssV65mx2n
p3842
(dp3843
g3
I0
sg4
I0
sg5
I1
ssV65ovbj
p3844
(dp3845
g3
I4
sg4
I0
sg5
I0
ssV65ia9o
p3846
(dp3847
g3
I58
sg4
I0
sg5
I654
ssV65rftt
p3848
(dp3849
g3
I0
sg4
I0
sg5
I0
ssV65tenk
p3850
(dp3851
g3
I2
sg4
I0
sg5
I2
ssV66k5uc
p3852
(dp3853
g3
I5
sg4
I0
sg5
I58
ssV659bjs
p3854
(dp3855
g3
I1
sg4
I0
sg5
I21
ssV63chvn
p3856
(dp3857
g3
I0
sg4
I0
sg5
I1
ssV65wsbq
p3858
(dp3859
g3
I1
sg4
I0
sg5
I1
ssV65x1bn
p3860
(dp3861
g3
I3
sg4
I0
sg5
I2
ssV2vgobp
p3862
(dp3863
g3
I2
sg4
I0
sg5
I9
ssV65nhon
p3864
(dp3865
g3
I8
sg4
I0
sg5
I168
ssV65a816
p3866
(dp3867
g3
I0
sg4
I0
sg5
I8
ssV65kwz9
p3868
(dp3869
g3
I0
sg4
I0
sg5
I0
ssV65maln
p3870
(dp3871
g3
I1
sg4
I0
sg5
I0
ssV1hwtgg
p3872
(dp3873
g3
I2
sg4
I0
sg5
I27
ssV65rftn
p3874
(dp3875
g3
I0
sg4
I0
sg5
I0
ssV2vidar
p3876
(dp3877
g3
I0
sg4
I0
sg5
I0
ssV66anl1
p3878
(dp3879
g3
I0
sg4
I0
sg5
I6
ssV65w4zq
p3880
(dp3881
g3
I0
sg4
I0
sg5
I3
ssV65btof
p3882
(dp3883
g3
I1
sg4
I0
sg5
I8
ssV65h9d3
p3884
(dp3885
g3
I1
sg4
I0
sg5
I19
ssV65t0r1
p3886
(dp3887
g3
I0
sg4
I0
sg5
I9
ssV63lvrx
p3888
(dp3889
g3
I6
sg4
I0
sg5
I124
ssV65zvi5
p3890
(dp3891
g3
I0
sg4
I0
sg5
I3
ssV2vda4q
p3892
(dp3893
g3
I0
sg4
I0
sg5
I1
ssV64bq0v
p3894
(dp3895
g3
I4
sg4
I0
sg5
I67
ssV64suxh
p3896
(dp3897
g3
I0
sg4
I0
sg5
I5
ssV2vg301
p3898
(dp3899
g3
I0
sg4
I0
sg5
I2
ssV662lm9
p3900
(dp3901
g3
I6
sg4
I0
sg5
I11
ssV1i7d9n
p3902
(dp3903
g3
I1
sg4
I0
sg5
I3
ssV65qtpk
p3904
(dp3905
g3
I1
sg4
I0
sg5
I4
ssV65lmrn
p3906
(dp3907
g3
I2
sg4
I0
sg5
I5
ssV66c7db
p3908
(dp3909
g3
I1
sg4
I0
sg5
I3
ssV65k1ru
p3910
(dp3911
g3
I2
sg4
I0
sg5
I0
ssV63pjvd
p3912
(dp3913
g3
I1
sg4
I0
sg5
I3
ssV6628i1
p3914
(dp3915
g3
I4
sg4
I0
sg5
I6
ssV65j0t0
p3916
(dp3917
g3
I5
sg4
I0
sg5
I1
ssV656ldw
p3918
(dp3919
g3
I4
sg4
I0
sg5
I1
ssV1ik6zt
p3920
(dp3921
g3
I20
sg4
I0
sg5
I257
ssV65fiaf
p3922
(dp3923
g3
I0
sg4
I0
sg5
I1
ssV637mod
p3924
(dp3925
g3
I0
sg4
I0
sg5
I2
ssV65jo4q
p3926
(dp3927
g3
I0
sg4
I0
sg5
I0
ssV64q1ou
p3928
(dp3929
g3
I0
sg4
I0
sg5
I10
ssV65te13
p3930
(dp3931
g3
I2
sg4
I0
sg5
I2
ssVxjnqs
p3932
(dp3933
g3
I4
sg4
I0
sg5
I0
ssV65kh6f
p3934
(dp3935
g3
I0
sg4
I0
sg5
I8
ssV2vb3zz
p3936
(dp3937
g3
I5
sg4
I0
sg5
I30
ssV65iqhw
p3938
(dp3939
g3
I9
sg4
I0
sg5
I98
ssV63si01
p3940
(dp3941
g3
I3
sg4
I0
sg5
I121
ssV2vk1bj
p3942
(dp3943
g3
I1
sg4
I0
sg5
I5
ssV2v8sq8
p3944
(dp3945
g3
I0
sg4
I0
sg5
I15
ssV6510rx
p3946
(dp3947
g3
I2
sg4
I0
sg5
I24
ssV637gay
p3948
(dp3949
g3
I2
sg4
I0
sg5
I19
ssV65hc39
p3950
(dp3951
g3
I0
sg4
I0
sg5
I1
ssV65h1dw
p3952
(dp3953
g3
I1
sg4
I0
sg5
I7
ssV654mf6
p3954
(dp3955
g3
I4
sg4
I0
sg5
I25
ssV65kl6o
p3956
(dp3957
g3
I3
sg4
I0
sg5
I40
ssV65lrvg
p3958
(dp3959
g3
I0
sg4
I0
sg5
I2
ssV65m51p
p3960
(dp3961
g3
I0
sg4
I0
sg5
I1
ssV66jnoo
p3962
(dp3963
g3
I0
sg4
I0
sg5
I1
ssV640gxm
p3964
(dp3965
g3
I0
sg4
I0
sg5
I11
ssV64hua2
p3966
(dp3967
g3
I0
sg4
I0
sg5
I1
ssV66smlp
p3968
(dp3969
g3
I1
sg4
I0
sg5
I13
ssV2v9wla
p3970
(dp3971
g3
I3
sg4
I0
sg5
I32
ssV1ifcnh
p3972
(dp3973
g3
I3
sg4
I0
sg5
I56
ssV65av5i
p3974
(dp3975
g3
I1
sg4
I0
sg5
I3
ssV65gmlh
p3976
(dp3977
g3
I14
sg4
I0
sg5
I234
ssV66h5t3
p3978
(dp3979
g3
I0
sg4
I0
sg5
I5
ssV65mvtg
p3980
(dp3981
g3
I1
sg4
I0
sg5
I1
ssV62kbma
p3982
(dp3983
g3
I28
sg4
I0
sg5
I3132
ssV65lhxx
p3984
(dp3985
g3
I2
sg4
I0
sg5
I1
ssV65n3dn
p3986
(dp3987
g3
I1
sg4
I0
sg5
I0
ssV64xdqt
p3988
(dp3989
g3
I6
sg4
I0
sg5
I11
ssV65gfqu
p3990
(dp3991
g3
I2
sg4
I0
sg5
I0
ssV63f45x
p3992
(dp3993
g3
I0
sg4
I0
sg5
I4
ssV62byji
p3994
(dp3995
g3
I1
sg4
I0
sg5
I14
ssV65s6ri
p3996
(dp3997
g3
I2
sg4
I0
sg5
I8
ssV65iyf3
p3998
(dp3999
g3
I1
sg4
I0
sg5
I0
ssV6397po
p4000
(dp4001
g3
I0
sg4
I0
sg5
I0
ssV2v8ft6
p4002
(dp4003
g3
I0
sg4
I0
sg5
I7
ssV65praz
p4004
(dp4005
g3
I0
sg4
I0
sg5
I1
ssV65h1qr
p4006
(dp4007
g3
I14
sg4
I0
sg5
I56
ssV65iqh3
p4008
(dp4009
g3
I0
sg4
I0
sg5
I3
ssV65gbu8
p4010
(dp4011
g3
I0
sg4
I0
sg5
I1
ssV65p0sd
p4012
(dp4013
g3
I1
sg4
I0
sg5
I1
ssV2v9uhj
p4014
(dp4015
g3
I0
sg4
I0
sg5
I4
ssV63p59z
p4016
(dp4017
g3
I0
sg4
I0
sg5
I1
ssV65ozts
p4018
(dp4019
g3
I2
sg4
I0
sg5
I3
ssV65kdnu
p4020
(dp4021
g3
I51
sg4
I0
sg5
I431
ssV664c61
p4022
(dp4023
g3
I3
sg4
I0
sg5
I81
ssV65sib4
p4024
(dp4025
g3
I1
sg4
I0
sg5
I1
ssV65p3up
p4026
(dp4027
g3
I5
sg4
I0
sg5
I9
ssV1idr8c
p4028
(dp4029
g3
I1
sg4
I0
sg5
I12
ssV65fioc
p4030
(dp4031
g3
I0
sg4
I0
sg5
I0
ssV1id94y
p4032
(dp4033
g3
I0
sg4
I0
sg5
I1
ssV63unau
p4034
(dp4035
g3
I7
sg4
I0
sg5
I8
ssV2v61j8
p4036
(dp4037
g3
I0
sg4
I0
sg5
I0
ssV66xdxj
p4038
(dp4039
g3
I2
sg4
I0
sg5
I8
ssV65jeni
p4040
(dp4041
g3
I3
sg4
I0
sg5
I3
ssV62kwni
p4042
(dp4043
g3
I7
sg4
I0
sg5
I15
ssV62ss8x
p4044
(dp4045
g3
I0
sg4
I0
sg5
I7
ssV65pcu7
p4046
(dp4047
g3
I0
sg4
I0
sg5
I1
ssV654tf3
p4048
(dp4049
g3
I2
sg4
I0
sg5
I15
ssV63w1og
p4050
(dp4051
g3
I0
sg4
I0
sg5
I2
ssV65qv7e
p4052
(dp4053
g3
I0
sg4
I0
sg5
I1
ssV65nvf2
p4054
(dp4055
g3
I4
sg4
I0
sg5
I10
ssV62tl92
p4056
(dp4057
g3
I1
sg4
I0
sg5
I19
ssV66wdyd
p4058
(dp4059
g3
I93
sg4
I0
sg5
I5459
ssV65nnhh
p4060
(dp4061
g3
I18
sg4
I0
sg5
I196
ssV66npdf
p4062
(dp4063
g3
I0
sg4
I0
sg5
I11
ssV2v3e7j
p4064
(dp4065
g3
I0
sg4
I0
sg5
I7
ssV1eso34
p4066
(dp4067
g3
I1
sg4
I0
sg5
I3
ssV65hr2m
p4068
(dp4069
g3
I13
sg4
I0
sg5
I104
ssV65hf02
p4070
(dp4071
g3
I3
sg4
I0
sg5
I2
ssV1hmpf5
p4072
(dp4073
g3
I0
sg4
I0
sg5
I38
ssV664s6s
p4074
(dp4075
g3
I0
sg4
I0
sg5
I1
ssV62tfog
p4076
(dp4077
g3
I0
sg4
I0
sg5
I6
ssV64g62l
p4078
(dp4079
g3
I6
sg4
I0
sg5
I3
ssV2v9ffs
p4080
(dp4081
g3
I0
sg4
I0
sg5
I6
ssV6749mp
p4082
(dp4083
g3
I5
sg4
I0
sg5
I29
ssV2vge3w
p4084
(dp4085
g3
I0
sg4
I0
sg5
I21
ssV66p4ec
p4086
(dp4087
g3
I0
sg4
I0
sg5
I2
ssV64o7su
p4088
(dp4089
g3
I0
sg4
I0
sg5
I2
ssV64tx1e
p4090
(dp4091
g3
I0
sg4
I0
sg5
I3
ssV639qzf
p4092
(dp4093
g3
I1
sg4
I0
sg5
I15
ssV65iyto
p4094
(dp4095
g3
I3
sg4
I0
sg5
I0
ssV65mn27
p4096
(dp4097
g3
I0
sg4
I0
sg5
I0
ssV62whbb
p4098
(dp4099
g3
I12
sg4
I0
sg5
I1274
ssV65pni8
p4100
(dp4101
g3
I2
sg4
I0
sg5
I0
ssV669tpc
p4102
(dp4103
g3
I1
sg4
I0
sg5
I15
ssV66nnz7
p4104
(dp4105
g3
I0
sg4
I0
sg5
I2
ssV62i8r8
p4106
(dp4107
g3
I0
sg4
I0
sg5
I0
ssV65isoc
p4108
(dp4109
g3
I3
sg4
I0
sg5
I0
ssV62fmf4
p4110
(dp4111
g3
I1
sg4
I0
sg5
I4
ssV1i1b2p
p4112
(dp4113
g3
I6
sg4
I0
sg5
I47
ssV66a70h
p4114
(dp4115
g3
I2
sg4
I0
sg5
I16
ssV65s7ie
p4116
(dp4117
g3
I0
sg4
I0
sg5
I3
ssV65sgza
p4118
(dp4119
g3
I4
sg4
I0
sg5
I67
ssV65fhm8
p4120
(dp4121
g3
I0
sg4
I0
sg5
I1
ssV65vxbx
p4122
(dp4123
g3
I0
sg4
I0
sg5
I4
ssV6446bc
p4124
(dp4125
g3
I2
sg4
I0
sg5
I14
ssV1ep5cx
p4126
(dp4127
g3
I0
sg4
I0
sg5
I9
ssV64jdqm
p4128
(dp4129
g3
I5
sg4
I0
sg5
I323
ssV65fx8b
p4130
(dp4131
g3
I0
sg4
I0
sg5
I11
ssV65ocq2
p4132
(dp4133
g3
I5
sg4
I0
sg5
I59
ssV64a44g
p4134
(dp4135
g3
I4
sg4
I0
sg5
I21
ssV64reqc
p4136
(dp4137
g3
I2
sg4
I0
sg5
I18
ssV65f3nl
p4138
(dp4139
g3
I16
sg4
I0
sg5
I778
ssV642glj
p4140
(dp4141
g3
I0
sg4
I0
sg5
I8
ssV65kmzg
p4142
(dp4143
g3
I5
sg4
I0
sg5
I0
ssV66iydk
p4144
(dp4145
g3
I0
sg4
I0
sg5
I0
ssV663bo8
p4146
(dp4147
g3
I0
sg4
I0
sg5
I2
ssV63mcpt
p4148
(dp4149
g3
I2
sg4
I0
sg5
I1
ssV65ow2i
p4150
(dp4151
g3
I48
sg4
I0
sg5
I788
ssV1hzqj8
p4152
(dp4153
g3
I4
sg4
I0
sg5
I0
ssV65r10z
p4154
(dp4155
g3
I0
sg4
I0
sg5
I0
ssV65fl2h
p4156
(dp4157
g3
I0
sg4
I0
sg5
I0
ssV65bnk2
p4158
(dp4159
g3
I5
sg4
I0
sg5
I43
ssV1hlbga
p4160
(dp4161
g3
I0
sg4
I0
sg5
I28
ssV65os09
p4162
(dp4163
g3
I2
sg4
I0
sg5
I5
ssV65mbeq
p4164
(dp4165
g3
I0
sg4
I0
sg5
I2
ssV2vg7xg
p4166
(dp4167
g3
I2
sg4
I0
sg5
I13
ssV65ndkn
p4168
(dp4169
g3
I0
sg4
I0
sg5
I2
ssV65kcrx
p4170
(dp4171
g3
I4
sg4
I0
sg5
I0
ssV64eyda
p4172
(dp4173
g3
I2
sg4
I0
sg5
I2
ssV66py9g
p4174
(dp4175
g3
I1
sg4
I0
sg5
I21
ssV65lu40
p4176
(dp4177
g3
I0
sg4
I0
sg5
I2
ssV65fbip
p4178
(dp4179
g3
I0
sg4
I0
sg5
I0
ssV2ve49c
p4180
(dp4181
g3
I138
sg4
I0
sg5
I2483
ssV65kp86
p4182
(dp4183
g3
I1
sg4
I0
sg5
I0
ssV65ot3t
p4184
(dp4185
g3
I26
sg4
I0
sg5
I403
ssV65jajz
p4186
(dp4187
g3
I0
sg4
I0
sg5
I0
ssV64ue09
p4188
(dp4189
g3
I4
sg4
I0
sg5
I9
ssV65kp89
p4190
(dp4191
g3
I4
sg4
I0
sg5
I29
ssV63a1lc
p4192
(dp4193
g3
I1
sg4
I0
sg5
I15
ssV2vb5rx
p4194
(dp4195
g3
I2
sg4
I0
sg5
I90
ssV66u4pp
p4196
(dp4197
g3
I6
sg4
I0
sg5
I233
ssV65h290
p4198
(dp4199
g3
I4
sg4
I0
sg5
I0
ssV65ftox
p4200
(dp4201
g3
I3
sg4
I0
sg5
I2
ssV65mxfx
p4202
(dp4203
g3
I11
sg4
I0
sg5
I1
ssV65mogg
p4204
(dp4205
g3
I1
sg4
I0
sg5
I2
ssV65k1cy
p4206
(dp4207
g3
I1
sg4
I0
sg5
I1
ssV65oiot
p4208
(dp4209
g3
I5
sg4
I0
sg5
I27
ssV2vkgl3
p4210
(dp4211
g3
I0
sg4
I0
sg5
I6
ssV633awk
p4212
(dp4213
g3
I0
sg4
I0
sg5
I8
ssV65vrc2
p4214
(dp4215
g3
I2
sg4
I0
sg5
I3
ssV63f6yc
p4216
(dp4217
g3
I1
sg4
I0
sg5
I17
ssV66wfw4
p4218
(dp4219
g3
I5
sg4
I0
sg5
I84
ssV64i5lx
p4220
(dp4221
g3
I0
sg4
I0
sg5
I3
ssV647dbh
p4222
(dp4223
g3
I1
sg4
I0
sg5
I8
ssV1hhfhd
p4224
(dp4225
g3
I1
sg4
I0
sg5
I131
ssV1icxg5
p4226
(dp4227
g3
I0
sg4
I0
sg5
I14
ssV65od3o
p4228
(dp4229
g3
I29
sg4
I0
sg5
I1429
ssV2v26xq
p4230
(dp4231
g3
I1
sg4
I0
sg5
I2
ssV65v6y9
p4232
(dp4233
g3
I0
sg4
I0
sg5
I2
ssV66ucrl
p4234
(dp4235
g3
I0
sg4
I0
sg5
I1
ssV63xe2z
p4236
(dp4237
g3
I0
sg4
I0
sg5
I10
ssV1hqv8y
p4238
(dp4239
g3
I2
sg4
I0
sg5
I65
ssV65uvz7
p4240
(dp4241
g3
I0
sg4
I0
sg5
I2
ssV66s4n0
p4242
(dp4243
g3
I3
sg4
I0
sg5
I94
ssV62t3t1
p4244
(dp4245
g3
I0
sg4
I0
sg5
I18
ssV62bxtn
p4246
(dp4247
g3
I1
sg4
I0
sg5
I38
ssV66awzf
p4248
(dp4249
g3
I0
sg4
I0
sg5
I7
ssV66j7jk
p4250
(dp4251
g3
I5
sg4
I0
sg5
I76
ssV671zf0
p4252
(dp4253
g3
I2
sg4
I0
sg5
I10
ssV65y156
p4254
(dp4255
g3
I0
sg4
I0
sg5
I75
ssV65iitf
p4256
(dp4257
g3
I0
sg4
I0
sg5
I3
ssV650vvv
p4258
(dp4259
g3
I0
sg4
I0
sg5
I1
ssV65jduf
p4260
(dp4261
g3
I0
sg4
I0
sg5
I29
ssVxkado
p4262
(dp4263
g3
I7
sg4
I0
sg5
I57
ssV642ngn
p4264
(dp4265
g3
I2
sg4
I0
sg5
I9
ssV65lxjn
p4266
(dp4267
g3
I19
sg4
I0
sg5
I207
ssV63zocp
p4268
(dp4269
g3
I3
sg4
I0
sg5
I5
ssV64l854
p4270
(dp4271
g3
I0
sg4
I0
sg5
I1
ssV65llcr
p4272
(dp4273
g3
I2
sg4
I0
sg5
I0
ssV2vhxtr
p4274
(dp4275
g3
I2
sg4
I0
sg5
I33
ssV65n2pt
p4276
(dp4277
g3
I1
sg4
I0
sg5
I64
ssV65q2my
p4278
(dp4279
g3
I1
sg4
I0
sg5
I0
ssV66mwxm
p4280
(dp4281
g3
I0
sg4
I0
sg5
I8
ssV65mqkt
p4282
(dp4283
g3
I0
sg4
I0
sg5
I4
ssV63sm85
p4284
(dp4285
g3
I13
sg4
I0
sg5
I42
ssV1f2jps
p4286
(dp4287
g3
I3
sg4
I0
sg5
I78
ssV659ub1
p4288
(dp4289
g3
I0
sg4
I0
sg5
I3
ssV659lwn
p4290
(dp4291
g3
I0
sg4
I0
sg5
I25
ssV664m28
p4292
(dp4293
g3
I3
sg4
I0
sg5
I7
ssV65jo8x
p4294
(dp4295
g3
I3
sg4
I0
sg5
I2
ssV66htda
p4296
(dp4297
g3
I0
sg4
I0
sg5
I7
ssV65r2cj
p4298
(dp4299
g3
I0
sg4
I0
sg5
I0
ssV65nkfo
p4300
(dp4301
g3
I5
sg4
I0
sg5
I21
ssV65ox9d
p4302
(dp4303
g3
I9
sg4
I0
sg5
I115
ssV65t7hl
p4304
(dp4305
g3
I1
sg4
I0
sg5
I3
ssV671lf2
p4306
(dp4307
g3
I48
sg4
I0
sg5
I2570
ssV6538cf
p4308
(dp4309
g3
I0
sg4
I0
sg5
I5
ssV2v9mhd
p4310
(dp4311
g3
I2
sg4
I0
sg5
I53
ssV2v5ca7
p4312
(dp4313
g3
I0
sg4
I0
sg5
I6
ssVxjs22
p4314
(dp4315
g3
I4
sg4
I0
sg5
I3
ssV65t99b
p4316
(dp4317
g3
I0
sg4
I0
sg5
I0
ssV65ufu7
p4318
(dp4319
g3
I2
sg4
I0
sg5
I1
ssV65hctx
p4320
(dp4321
g3
I1
sg4
I0
sg5
I1
ssV65tdg8
p4322
(dp4323
g3
I2
sg4
I0
sg5
I1
ssV65trf3
p4324
(dp4325
g3
I3
sg4
I0
sg5
I5
ssV668391
p4326
(dp4327
g3
I0
sg4
I0
sg5
I5
ssV65w159
p4328
(dp4329
g3
I2
sg4
I0
sg5
I2
ssV65rjab
p4330
(dp4331
g3
I0
sg4
I0
sg5
I0
ssV65uao0
p4332
(dp4333
g3
I0
sg4
I0
sg5
I1
ssV65f146
p4334
(dp4335
g3
I1
sg4
I0
sg5
I1
ssV65choc
p4336
(dp4337
g3
I0
sg4
I0
sg5
I3
ssV6601pj
p4338
(dp4339
g3
I1
sg4
I0
sg5
I2
ssV65rfwu
p4340
(dp4341
g3
I0
sg4
I0
sg5
I3
ssV65gy53
p4342
(dp4343
g3
I1
sg4
I0
sg5
I0
ssV65sc9f
p4344
(dp4345
g3
I0
sg4
I0
sg5
I10
ssV6480in
p4346
(dp4347
g3
I3
sg4
I0
sg5
I5
ssV63lu40
p4348
(dp4349
g3
I29
sg4
I0
sg5
I5944
ssV62o00g
p4350
(dp4351
g3
I0
sg4
I0
sg5
I4
ssV65lso4
p4352
(dp4353
g3
I6
sg4
I0
sg5
I2
ssV65rrcn
p4354
(dp4355
g3
I2
sg4
I0
sg5
I8
ssV65sd6q
p4356
(dp4357
g3
I0
sg4
I0
sg5
I1
ssV65plh5
p4358
(dp4359
g3
I1
sg4
I0
sg5
I8
ssV65tkor
p4360
(dp4361
g3
I2
sg4
I0
sg5
I15
ssV1hgjfy
p4362
(dp4363
g3
I0
sg4
I0
sg5
I57
ssV66txcg
p4364
(dp4365
g3
I1
sg4
I0
sg5
I3
ssV65rrq1
p4366
(dp4367
g3
I2
sg4
I0
sg5
I8
ssV65rkx0
p4368
(dp4369
g3
I15
sg4
I0
sg5
I254
ssV65s3m2
p4370
(dp4371
g3
I0
sg4
I0
sg5
I27
ssV65v1g4
p4372
(dp4373
g3
I0
sg4
I0
sg5
I1
ssV64ddoq
p4374
(dp4375
g3
I0
sg4
I0
sg5
I13
ssV65jgaj
p4376
(dp4377
g3
I3
sg4
I0
sg5
I6
ssV65jlt1
p4378
(dp4379
g3
I4
sg4
I0
sg5
I30
ssV639e63
p4380
(dp4381
g3
I0
sg4
I0
sg5
I5
ssV65s4i2
p4382
(dp4383
g3
I1
sg4
I0
sg5
I2
ssV656bbv
p4384
(dp4385
g3
I0
sg4
I0
sg5
I2
ssV65lngu
p4386
(dp4387
g3
I0
sg4
I0
sg5
I1
ssV65wb3w
p4388
(dp4389
g3
I0
sg4
I0
sg5
I0
ssV2v8cra
p4390
(dp4391
g3
I0
sg4
I0
sg5
I2
ssV65h3pw
p4392
(dp4393
g3
I0
sg4
I0
sg5
I0
ssV65owya
p4394
(dp4395
g3
I1
sg4
I0
sg5
I5
ssV65vo24
p4396
(dp4397
g3
I0
sg4
I0
sg5
I0
ssV1eyhbk
p4398
(dp4399
g3
I6
sg4
I0
sg5
I23
ssV65pxid
p4400
(dp4401
g3
I7
sg4
I0
sg5
I195
ssV65f560
p4402
(dp4403
g3
I45
sg4
I0
sg5
I440
ssV65spck
p4404
(dp4405
g3
I1
sg4
I0
sg5
I0
ssV63azfc
p4406
(dp4407
g3
I0
sg4
I0
sg5
I1
ssV1g4dup
p4408
(dp4409
g3
I0
sg4
I0
sg5
I121
ssV65pzap
p4410
(dp4411
g3
I0
sg4
I0
sg5
I1
ssV639ets
p4412
(dp4413
g3
I0
sg4
I0
sg5
I18
ssV65h5kn
p4414
(dp4415
g3
I6
sg4
I0
sg5
I0
ssV1h83ob
p4416
(dp4417
g3
I7
sg4
I0
sg5
I51
ssV65tekf
p4418
(dp4419
g3
I0
sg4
I0
sg5
I1
ssV65t3bd
p4420
(dp4421
g3
I1
sg4
I0
sg5
I5
ssV63b161
p4422
(dp4423
g3
I0
sg4
I0
sg5
I1
ssV62yv25
p4424
(dp4425
g3
I0
sg4
I0
sg5
I1
ssVxjsk4
p4426
(dp4427
g3
I0
sg4
I0
sg5
I0
ssV65m6u5
p4428
(dp4429
g3
I0
sg4
I0
sg5
I1
ssV1f0ncz
p4430
(dp4431
g3
I1
sg4
I0
sg5
I68
ssV658f34
p4432
(dp4433
g3
I4
sg4
I0
sg5
I22
ssV65lppf
p4434
(dp4435
g3
I0
sg4
I0
sg5
I1
ssV65s3me
p4436
(dp4437
g3
I1
sg4
I0
sg5
I0
ssV65s1au
p4438
(dp4439
g3
I1
sg4
I0
sg5
I0
ssV65t28k
p4440
(dp4441
g3
I6
sg4
I0
sg5
I90
ssV65hbrl
p4442
(dp4443
g3
I0
sg4
I0
sg5
I2
ssV65rvy8
p4444
(dp4445
g3
I1
sg4
I0
sg5
I7
ssVxjsy7
p4446
(dp4447
g3
I0
sg4
I0
sg5
I0
ssV63imx7
p4448
(dp4449
g3
I1
sg4
I0
sg5
I1
ssV65sly9
p4450
(dp4451
g3
I26
sg4
I0
sg5
I461
ssV66pc6e
p4452
(dp4453
g3
I0
sg4
I0
sg5
I5
ssV65s5gk
p4454
(dp4455
g3
I3
sg4
I0
sg5
I9
ssV1hztnx
p4456
(dp4457
g3
I2
sg4
I0
sg5
I37
ssV1hkklb
p4458
(dp4459
g3
I1
sg4
I0
sg5
I12
ssV65hjqv
p4460
(dp4461
g3
I0
sg4
I0
sg5
I0
ssV65vi26
p4462
(dp4463
g3
I0
sg4
I0
sg5
I2
ssV65sz4e
p4464
(dp4465
g3
I0
sg4
I0
sg5
I0
ssV66jv5f
p4466
(dp4467
g3
I0
sg4
I0
sg5
I26
ssV65genn
p4468
(dp4469
g3
I7
sg4
I0
sg5
I2
ssV64hnde
p4470
(dp4471
g3
I2
sg4
I0
sg5
I29
ssV65fy8n
p4472
(dp4473
g3
I0
sg4
I0
sg5
I4
ssV65hfx1
p4474
(dp4475
g3
I5
sg4
I0
sg5
I95
ssV65hbnb
p4476
(dp4477
g3
I10
sg4
I0
sg5
I68
ssV65k0s9
p4478
(dp4479
g3
I6
sg4
I0
sg5
I0
ssV65v8ak
p4480
(dp4481
g3
I5
sg4
I0
sg5
I80
ssV65sqcd
p4482
(dp4483
g3
I3
sg4
I0
sg5
I3
ssV65qv4u
p4484
(dp4485
g3
I4
sg4
I0
sg5
I15
ssV65tzca
p4486
(dp4487
g3
I2
sg4
I0
sg5
I129
ssV62obj3
p4488
(dp4489
g3
I0
sg4
I0
sg5
I5
ssV65qdbi
p4490
(dp4491
g3
I0
sg4
I0
sg5
I1
ssV63f4n6
p4492
(dp4493
g3
I0
sg4
I0
sg5
I2
ssV65u150
p4494
(dp4495
g3
I9
sg4
I0
sg5
I123
ssV65pfh8
p4496
(dp4497
g3
I0
sg4
I0
sg5
I0
ssV640tb0
p4498
(dp4499
g3
I0
sg4
I0
sg5
I22
ssV65obdm
p4500
(dp4501
g3
I1
sg4
I0
sg5
I4
ssV1i7kfh
p4502
(dp4503
g3
I0
sg4
I0
sg5
I10
ssV2vjekh
p4504
(dp4505
g3
I0
sg4
I0
sg5
I0
ssV64klz9
p4506
(dp4507
g3
I3
sg4
I0
sg5
I9
ssV65npo4
p4508
(dp4509
g3
I0
sg4
I0
sg5
I4
ssV65h2cu
p4510
(dp4511
g3
I0
sg4
I0
sg5
I0
ssV2v1trx
p4512
(dp4513
g3
I0
sg4
I0
sg5
I0
ssV65sb6t
p4514
(dp4515
g3
I1
sg4
I0
sg5
I0
ssV65gcn6
p4516
(dp4517
g3
I0
sg4
I0
sg5
I1
ssV65u6gm
p4518
(dp4519
g3
I2
sg4
I0
sg5
I1
ssV65qih6
p4520
(dp4521
g3
I0
sg4
I0
sg5
I1
ssV65erpm
p4522
(dp4523
g3
I1
sg4
I0
sg5
I3
ssV65n142
p4524
(dp4525
g3
I4
sg4
I0
sg5
I1
ssV65j357
p4526
(dp4527
g3
I2
sg4
I0
sg5
I0
ssV65lg2i
p4528
(dp4529
g3
I42
sg4
I0
sg5
I965
ssV65gvv1
p4530
(dp4531
g3
I2
sg4
I0
sg5
I1
ssV2vh6px
p4532
(dp4533
g3
I0
sg4
I0
sg5
I5
ssV64tzx4
p4534
(dp4535
g3
I1
sg4
I0
sg5
I3
ssV65m2ub
p4536
(dp4537
g3
I1
sg4
I0
sg5
I0
ssV1h5qqr
p4538
(dp4539
g3
I2
sg4
I0
sg5
I41
ssV65fdxs
p4540
(dp4541
g3
I3
sg4
I0
sg5
I37
ssV65onw9
p4542
(dp4543
g3
I1
sg4
I0
sg5
I19
ssV65gnby
p4544
(dp4545
g3
I1
sg4
I0
sg5
I0
ssV62n29x
p4546
(dp4547
g3
I0
sg4
I0
sg5
I0
ssV66pi2o
p4548
(dp4549
g3
I5
sg4
I0
sg5
I89
ssV66hsst
p4550
(dp4551
g3
I0
sg4
I0
sg5
I0
ssV65whbx
p4552
(dp4553
g3
I3
sg4
I0
sg5
I18
ssV65hoad
p4554
(dp4555
g3
I4
sg4
I0
sg5
I18
ssV66b0ci
p4556
(dp4557
g3
I0
sg4
I0
sg5
I9
ssV65k4y6
p4558
(dp4559
g3
I0
sg4
I0
sg5
I2
ssV65c1t9
p4560
(dp4561
g3
I1
sg4
I0
sg5
I2
ssV65nugw
p4562
(dp4563
g3
I4
sg4
I0
sg5
I2
ssV65u7j0
p4564
(dp4565
g3
I36
sg4
I0
sg5
I873
ssV638k9w
p4566
(dp4567
g3
I0
sg4
I0
sg5
I17
ssV66fvgn
p4568
(dp4569
g3
I2
sg4
I0
sg5
I14
ssV63j1yw
p4570
(dp4571
g3
I2
sg4
I0
sg5
I19
ssV2v7fzw
p4572
(dp4573
g3
I0
sg4
I0
sg5
I3
ssV65pwtk
p4574
(dp4575
g3
I0
sg4
I0
sg5
I0
ssV65gzwd
p4576
(dp4577
g3
I0
sg4
I0
sg5
I0
ssV64cdkp
p4578
(dp4579
g3
I1
sg4
I0
sg5
I4
ssV65hf7w
p4580
(dp4581
g3
I10
sg4
I0
sg5
I108
ssV667xyt
p4582
(dp4583
g3
I0
sg4
I0
sg5
I1
ssV65kmed
p4584
(dp4585
g3
I0
sg4
I0
sg5
I1
ssV65uqsb
p4586
(dp4587
g3
I5
sg4
I0
sg5
I8
ssVxjn69
p4588
(dp4589
g3
I17
sg4
I0
sg5
I552
ssV63i5i4
p4590
(dp4591
g3
I0
sg4
I0
sg5
I1
ssV65pgf2
p4592
(dp4593
g3
I0
sg4
I0
sg5
I0
ssV65fq6y
p4594
(dp4595
g3
I0
sg4
I0
sg5
I0
ssVxkn6l
p4596
(dp4597
g3
I0
sg4
I0
sg5
I6
ssV65huyi
p4598
(dp4599
g3
I1
sg4
I0
sg5
I0
ssV65z34x
p4600
(dp4601
g3
I0
sg4
I0
sg5
I2
ssV65mjsl
p4602
(dp4603
g3
I1
sg4
I0
sg5
I1
ssV6707af
p4604
(dp4605
g3
I0
sg4
I0
sg5
I1
ssV665w1v
p4606
(dp4607
g3
I0
sg4
I0
sg5
I62
ssV65e6n2
p4608
(dp4609
g3
I0
sg4
I0
sg5
I63
ssV1iehib
p4610
(dp4611
g3
I5
sg4
I0
sg5
I37
ssV1idlzv
p4612
(dp4613
g3
I0
sg4
I0
sg5
I11
ssV65ozgr
p4614
(dp4615
g3
I4
sg4
I0
sg5
I221
ssV65oq5v
p4616
(dp4617
g3
I4
sg4
I0
sg5
I10
ssV63hhos
p4618
(dp4619
g3
I0
sg4
I0
sg5
I3
ssV65um44
p4620
(dp4621
g3
I0
sg4
I0
sg5
I6
ssV65k2oo
p4622
(dp4623
g3
I4
sg4
I0
sg5
I6
ssV673dnq
p4624
(dp4625
g3
I0
sg4
I0
sg5
I26
ssV65jz9l
p4626
(dp4627
g3
I0
sg4
I0
sg5
I6
ssV1hkiqu
p4628
(dp4629
g3
I2
sg4
I0
sg5
I42
ssV1giosj
p4630
(dp4631
g3
I2
sg4
I0
sg5
I15
ssV65qivu
p4632
(dp4633
g3
I6
sg4
I0
sg5
I73
ssV65ow11
p4634
(dp4635
g3
I2
sg4
I0
sg5
I13
ssV6712e6
p4636
(dp4637
g3
I5
sg4
I0
sg5
I19
ssV672s7k
p4638
(dp4639
g3
I1
sg4
I0
sg5
I7
ssV66gbvd
p4640
(dp4641
g3
I0
sg4
I0
sg5
I0
ssV63b43e
p4642
(dp4643
g3
I2
sg4
I0
sg5
I8
ssV65kt16
p4644
(dp4645
g3
I16
sg4
I0
sg5
I337
ssV6502cx
p4646
(dp4647
g3
I2
sg4
I0
sg5
I9
ssV2v5e70
p4648
(dp4649
g3
I0
sg4
I0
sg5
I3
ssV65uzu0
p4650
(dp4651
g3
I10
sg4
I0
sg5
I183
ssV65ltct
p4652
(dp4653
g3
I2
sg4
I0
sg5
I2
ssV63fx7y
p4654
(dp4655
g3
I0
sg4
I0
sg5
I6
ssV648fr8
p4656
(dp4657
g3
I1
sg4
I0
sg5
I3
ssV65h5d5
p4658
(dp4659
g3
I0
sg4
I0
sg5
I5
ssV65k408
p4660
(dp4661
g3
I5
sg4
I0
sg5
I99
ssV668au1
p4662
(dp4663
g3
I3
sg4
I0
sg5
I4
ssV65o3mz
p4664
(dp4665
g3
I3
sg4
I0
sg5
I0
ssV6303wi
p4666
(dp4667
g3
I3
sg4
I0
sg5
I25
ssV2vc50l
p4668
(dp4669
g3
I0
sg4
I0
sg5
I0
ssV65l7yx
p4670
(dp4671
g3
I4
sg4
I0
sg5
I0
ssV65mpi8
p4672
(dp4673
g3
I0
sg4
I0
sg5
I0
ssV643t48
p4674
(dp4675
g3
I7
sg4
I0
sg5
I37
ssV2v1y2p
p4676
(dp4677
g3
I0
sg4
I0
sg5
I0
ssV666ktr
p4678
(dp4679
g3
I2
sg4
I0
sg5
I1
ssV64nmc8
p4680
(dp4681
g3
I2
sg4
I0
sg5
I36
ssV65tlzd
p4682
(dp4683
g3
I0
sg4
I0
sg5
I3
ssV66py83
p4684
(dp4685
g3
I1
sg4
I0
sg5
I0
ssV66w3nw
p4686
(dp4687
g3
I0
sg4
I0
sg5
I1
ssV1h08i3
p4688
(dp4689
g3
I0
sg4
I0
sg5
I0
ssV62uv2s
p4690
(dp4691
g3
I0
sg4
I0
sg5
I9
ssV65mft3
p4692
(dp4693
g3
I0
sg4
I0
sg5
I11
ssV2v2dgv
p4694
(dp4695
g3
I1
sg4
I0
sg5
I4
ssV64g6tz
p4696
(dp4697
g3
I4
sg4
I0
sg5
I6
ssV6407t8
p4698
(dp4699
g3
I14
sg4
I0
sg5
I475
ssV65gjvr
p4700
(dp4701
g3
I1
sg4
I0
sg5
I3
ssV64rtid
p4702
(dp4703
g3
I0
sg4
I0
sg5
I10
ssV65n7i3
p4704
(dp4705
g3
I1
sg4
I0
sg5
I13
ssV660r5v
p4706
(dp4707
g3
I0
sg4
I0
sg5
I20
ssV65sggh
p4708
(dp4709
g3
I1
sg4
I0
sg5
I2
ssV1eur3k
p4710
(dp4711
g3
I2
sg4
I0
sg5
I0
ssV65fjh9
p4712
(dp4713
g3
I4
sg4
I0
sg5
I19
ssV65m5i2
p4714
(dp4715
g3
I0
sg4
I0
sg5
I1
ssV66jsaq
p4716
(dp4717
g3
I0
sg4
I0
sg5
I1
ssV639353
p4718
(dp4719
g3
I3
sg4
I0
sg5
I9
ssV62gudy
p4720
(dp4721
g3
I2
sg4
I0
sg5
I21
ssV65qc9l
p4722
(dp4723
g3
I0
sg4
I0
sg5
I0
ssV2vdr3z
p4724
(dp4725
g3
I0
sg4
I0
sg5
I0
ssV65qyve
p4726
(dp4727
g3
I0
sg4
I0
sg5
I4
ssV65p7dy
p4728
(dp4729
g3
I4
sg4
I0
sg5
I17
ssV65t96r
p4730
(dp4731
g3
I3
sg4
I0
sg5
I0
ssV62dps1
p4732
(dp4733
g3
I0
sg4
I0
sg5
I2
ssV65lh02
p4734
(dp4735
g3
I1
sg4
I0
sg5
I0
ssV65v4aj
p4736
(dp4737
g3
I0
sg4
I0
sg5
I0
ssV63ljzl
p4738
(dp4739
g3
I0
sg4
I0
sg5
I10
ssV65njsh
p4740
(dp4741
g3
I1
sg4
I0
sg5
I0
ssV1hr44v
p4742
(dp4743
g3
I7
sg4
I0
sg5
I212
ssV65tht3
p4744
(dp4745
g3
I2
sg4
I0
sg5
I0
ssV65n8sr
p4746
(dp4747
g3
I8
sg4
I0
sg5
I0
ssV62nfp4
p4748
(dp4749
g3
I0
sg4
I0
sg5
I1
ssV65hlaf
p4750
(dp4751
g3
I0
sg4
I0
sg5
I2
ssV65mfqf
p4752
(dp4753
g3
I49
sg4
I0
sg5
I2
ssV6402dg
p4754
(dp4755
g3
I0
sg4
I0
sg5
I22
ssV64wcqv
p4756
(dp4757
g3
I4
sg4
I0
sg5
I176
ssV65jjas
p4758
(dp4759
g3
I1
sg4
I0
sg5
I1
ssV65h289
p4760
(dp4761
g3
I4
sg4
I0
sg5
I26
ssV64npng
p4762
(dp4763
g3
I1
sg4
I0
sg5
I2
ssV65icsv
p4764
(dp4765
g3
I4
sg4
I0
sg5
I22
ssV65lpmm
p4766
(dp4767
g3
I1
sg4
I0
sg5
I1
ssV64xd9p
p4768
(dp4769
g3
I5
sg4
I0
sg5
I56
ssV673njy
p4770
(dp4771
g3
I0
sg4
I0
sg5
I3
ssV65wgj9
p4772
(dp4773
g3
I3
sg4
I0
sg5
I2
ssV65acc9
p4774
(dp4775
g3
I3
sg4
I0
sg5
I3
ssV65tbp7
p4776
(dp4777
g3
I2
sg4
I0
sg5
I0
ssV65wfvn
p4778
(dp4779
g3
I3
sg4
I0
sg5
I3
ssV656pbm
p4780
(dp4781
g3
I0
sg4
I0
sg5
I5
ssV63tro3
p4782
(dp4783
g3
I3
sg4
I0
sg5
I20
ssV65f0qv
p4784
(dp4785
g3
I0
sg4
I0
sg5
I0
ssV65v5la
p4786
(dp4787
g3
I3
sg4
I0
sg5
I43
ssV2v2dix
p4788
(dp4789
g3
I1
sg4
I0
sg5
I0
ssV62mdh1
p4790
(dp4791
g3
I0
sg4
I0
sg5
I7
ssV65pii6
p4792
(dp4793
g3
I1
sg4
I0
sg5
I2
ssV66z6zo
p4794
(dp4795
g3
I0
sg4
I0
sg5
I12
ssV65t613
p4796
(dp4797
g3
I0
sg4
I0
sg5
I6
ssV65pd49
p4798
(dp4799
g3
I0
sg4
I0
sg5
I1
ssV65gpwh
p4800
(dp4801
g3
I0
sg4
I0
sg5
I1
ssV65gsca
p4802
(dp4803
g3
I1
sg4
I0
sg5
I0
ssV65r731
p4804
(dp4805
g3
I2
sg4
I0
sg5
I0
ssV65g2e4
p4806
(dp4807
g3
I2
sg4
I0
sg5
I3
ssV1gnksv
p4808
(dp4809
g3
I0
sg4
I0
sg5
I37
ssV65rw27
p4810
(dp4811
g3
I0
sg4
I0
sg5
I1
ssV65gymh
p4812
(dp4813
g3
I4
sg4
I0
sg5
I0
ssV65vm9i
p4814
(dp4815
g3
I1
sg4
I0
sg5
I1
ssV65mza7
p4816
(dp4817
g3
I0
sg4
I0
sg5
I0
ssV65mmn0
p4818
(dp4819
g3
I0
sg4
I0
sg5
I0
ssV65emww
p4820
(dp4821
g3
I0
sg4
I0
sg5
I0
ssV62q4cg
p4822
(dp4823
g3
I0
sg4
I0
sg5
I3
ssV65m9gg
p4824
(dp4825
g3
I0
sg4
I0
sg5
I12
ssV65ree9
p4826
(dp4827
g3
I0
sg4
I0
sg5
I0
ssV2vbuyw
p4828
(dp4829
g3
I0
sg4
I0
sg5
I15
ssV65z3bq
p4830
(dp4831
g3
I0
sg4
I0
sg5
I1
ssV65ucnw
p4832
(dp4833
g3
I50
sg4
I0
sg5
I2720
ssV65ij5n
p4834
(dp4835
g3
I0
sg4
I0
sg5
I1
ssV65nt5n
p4836
(dp4837
g3
I5
sg4
I0
sg5
I0
ssV65j0dg
p4838
(dp4839
g3
I0
sg4
I0
sg5
I0
ssV2vku2v
p4840
(dp4841
g3
I6
sg4
I0
sg5
I49
ssV64qp6z
p4842
(dp4843
g3
I0
sg4
I0
sg5
I17
ssV65rxt2
p4844
(dp4845
g3
I0
sg4
I0
sg5
I1
ssV65q8jv
p4846
(dp4847
g3
I0
sg4
I0
sg5
I0
ssV65tc4q
p4848
(dp4849
g3
I3
sg4
I0
sg5
I6
ssV65s06b
p4850
(dp4851
g3
I11
sg4
I0
sg5
I0
ssV65sj5d
p4852
(dp4853
g3
I1
sg4
I0
sg5
I1
ssV65sut3
p4854
(dp4855
g3
I8
sg4
I0
sg5
I11
ssV64vy35
p4856
(dp4857
g3
I5
sg4
I0
sg5
I20
ssV65en3g
p4858
(dp4859
g3
I6
sg4
I0
sg5
I0
ssV1eyia3
p4860
(dp4861
g3
I7
sg4
I0
sg5
I221
ssV65hbqs
p4862
(dp4863
g3
I0
sg4
I0
sg5
I1
ssV1i5lbw
p4864
(dp4865
g3
I9
sg4
I0
sg5
I196
ssV65gwi9
p4866
(dp4867
g3
I9
sg4
I0
sg5
I161
ssV662b4v
p4868
(dp4869
g3
I2
sg4
I0
sg5
I1
ssV65l723
p4870
(dp4871
g3
I2
sg4
I0
sg5
I1
ssV1hq9lk
p4872
(dp4873
g3
I1
sg4
I0
sg5
I0
ssV1idd2i
p4874
(dp4875
g3
I0
sg4
I0
sg5
I1
ssV1igqd6
p4876
(dp4877
g3
I5
sg4
I0
sg5
I17
ssV63p7ju
p4878
(dp4879
g3
I1
sg4
I0
sg5
I11
ssV65gcq7
p4880
(dp4881
g3
I3
sg4
I0
sg5
I2
ssV65ujq9
p4882
(dp4883
g3
I0
sg4
I0
sg5
I0
ssV65mt48
p4884
(dp4885
g3
I22
sg4
I0
sg5
I457
ssV65xy9p
p4886
(dp4887
g3
I1
sg4
I0
sg5
I0
ssV65g5o7
p4888
(dp4889
g3
I628
sg4
I0
sg5
I34542
ssV65g4gf
p4890
(dp4891
g3
I0
sg4
I0
sg5
I5
ssV1g3e46
p4892
(dp4893
g3
I6
sg4
I0
sg5
I143
ssV62j1v2
p4894
(dp4895
g3
I0
sg4
I0
sg5
I1
ssV666hvl
p4896
(dp4897
g3
I2
sg4
I0
sg5
I14
ssV65gqvf
p4898
(dp4899
g3
I0
sg4
I0
sg5
I3
ssV65ognq
p4900
(dp4901
g3
I0
sg4
I0
sg5
I4
ssV1inru4
p4902
(dp4903
g3
I0
sg4
I0
sg5
I20
ssV1ief3d
p4904
(dp4905
g3
I2
sg4
I0
sg5
I41
ssV66o6hr
p4906
(dp4907
g3
I1
sg4
I0
sg5
I28
ssV65r7ll
p4908
(dp4909
g3
I0
sg4
I0
sg5
I1
ssV65hz7a
p4910
(dp4911
g3
I0
sg4
I0
sg5
I1
ssV66j8me
p4912
(dp4913
g3
I1
sg4
I0
sg5
I0
ssV63egjd
p4914
(dp4915
g3
I2
sg4
I0
sg5
I13
ssV1d3bvk
p4916
(dp4917
g3
I0
sg4
I0
sg5
I5
ssV65nym9
p4918
(dp4919
g3
I2
sg4
I0
sg5
I0
ssV65gi34
p4920
(dp4921
g3
I1
sg4
I0
sg5
I8
ssV65famk
p4922
(dp4923
g3
I3
sg4
I0
sg5
I1
ssV64bju9
p4924
(dp4925
g3
I2
sg4
I0
sg5
I9
ssV65m1os
p4926
(dp4927
g3
I0
sg4
I0
sg5
I1
ssV65oc97
p4928
(dp4929
g3
I0
sg4
I0
sg5
I1
ssV2vfl0r
p4930
(dp4931
g3
I1
sg4
I0
sg5
I22
ssV65o9lm
p4932
(dp4933
g3
I3
sg4
I0
sg5
I2
ssV65prqf
p4934
(dp4935
g3
I1
sg4
I0
sg5
I0
ssV65p85m
p4936
(dp4937
g3
I3
sg4
I0
sg5
I140
ssV6611j9
p4938
(dp4939
g3
I25
sg4
I0
sg5
I304
ssV65lrfy
p4940
(dp4941
g3
I0
sg4
I0
sg5
I1
ssV6468ie
p4942
(dp4943
g3
I0
sg4
I0
sg5
I6
ssV65t6tg
p4944
(dp4945
g3
I1
sg4
I0
sg5
I5
ssV65fr1j
p4946
(dp4947
g3
I4
sg4
I0
sg5
I3
ssV65i9f8
p4948
(dp4949
g3
I3
sg4
I0
sg5
I14
ssV65opng
p4950
(dp4951
g3
I0
sg4
I0
sg5
I10
ssV66emce
p4952
(dp4953
g3
I2
sg4
I0
sg5
I33
ssV648bpk
p4954
(dp4955
g3
I0
sg4
I0
sg5
I1
ssV65h717
p4956
(dp4957
g3
I0
sg4
I0
sg5
I0
ssV65pkkp
p4958
(dp4959
g3
I1
sg4
I0
sg5
I7
ssV66sa6h
p4960
(dp4961
g3
I0
sg4
I0
sg5
I1
ssV65lrfl
p4962
(dp4963
g3
I0
sg4
I0
sg5
I1
ssV64y9eo
p4964
(dp4965
g3
I0
sg4
I0
sg5
I5
ssV65t0tq
p4966
(dp4967
g3
I2
sg4
I0
sg5
I1
ssV63fj87
p4968
(dp4969
g3
I1
sg4
I0
sg5
I2
ssV65inzr
p4970
(dp4971
g3
I10
sg4
I0
sg5
I485
ssV1huohc
p4972
(dp4973
g3
I1
sg4
I0
sg5
I54
ssV65shpe
p4974
(dp4975
g3
I1
sg4
I0
sg5
I7
ssV65lwz6
p4976
(dp4977
g3
I3
sg4
I0
sg5
I16
ssV65esss
p4978
(dp4979
g3
I0
sg4
I0
sg5
I0
ssV66lew2
p4980
(dp4981
g3
I0
sg4
I0
sg5
I4
ssV66e0fn
p4982
(dp4983
g3
I3
sg4
I0
sg5
I37
ssV65m54h
p4984
(dp4985
g3
I0
sg4
I0
sg5
I0
ssV655jic
p4986
(dp4987
g3
I1
sg4
I0
sg5
I2
ssV65iom3
p4988
(dp4989
g3
I0
sg4
I0
sg5
I3
ssV2vclsa
p4990
(dp4991
g3
I0
sg4
I0
sg5
I12
ssV1hll0q
p4992
(dp4993
g3
I0
sg4
I0
sg5
I18
ssV65k6ly
p4994
(dp4995
g3
I0
sg4
I0
sg5
I0
ssV65fq8n
p4996
(dp4997
g3
I1
sg4
I0
sg5
I1
ssV2vcr53
p4998
(dp4999
g3
I0
sg4
I0
sg5
I1
ssV65q70n
p5000
(dp5001
g3
I0
sg4
I0
sg5
I1
ssV65ila0
p5002
(dp5003
g3
I0
sg4
I0
sg5
I1
ssV65j4z7
p5004
(dp5005
g3
I16
sg4
I0
sg5
I369
ssV65i62i
p5006
(dp5007
g3
I3
sg4
I0
sg5
I18
ssV65jqzd
p5008
(dp5009
g3
I3
sg4
I0
sg5
I15
ssV2v5ixa
p5010
(dp5011
g3
I2
sg4
I0
sg5
I30
ssV65mu0t
p5012
(dp5013
g3
I1
sg4
I0
sg5
I0
ssV2v474v
p5014
(dp5015
g3
I6
sg4
I0
sg5
I0
ssV66i8hj
p5016
(dp5017
g3
I0
sg4
I0
sg5
I13
ssV65zuo7
p5018
(dp5019
g3
I0
sg4
I0
sg5
I0
ssV661b6z
p5020
(dp5021
g3
I2
sg4
I0
sg5
I13
ssV1ikvzm
p5022
(dp5023
g3
I1
sg4
I0
sg5
I28
ssV65mcrv
p5024
(dp5025
g3
I1
sg4
I0
sg5
I3
ssV64lpbm
p5026
(dp5027
g3
I2
sg4
I0
sg5
I11
ssV65pu0q
p5028
(dp5029
g3
I0
sg4
I0
sg5
I2
ssV65ji1q
p5030
(dp5031
g3
I0
sg4
I0
sg5
I0
ssV65f9mr
p5032
(dp5033
g3
I6
sg4
I0
sg5
I0
ssV663ufi
p5034
(dp5035
g3
I1
sg4
I0
sg5
I1
ssV62x0e2
p5036
(dp5037
g3
I1
sg4
I0
sg5
I13
ssV2v7le1
p5038
(dp5039
g3
I0
sg4
I0
sg5
I88
ssV65vlo9
p5040
(dp5041
g3
I0
sg4
I0
sg5
I0
ssV64l228
p5042
(dp5043
g3
I5
sg4
I0
sg5
I29
ssV65htjl
p5044
(dp5045
g3
I0
sg4
I0
sg5
I0
ssV65ti97
p5046
(dp5047
g3
I7
sg4
I0
sg5
I0
ssV65qdq8
p5048
(dp5049
g3
I2
sg4
I0
sg5
I4
ssV65564d
p5050
(dp5051
g3
I29
sg4
I0
sg5
I855
ssV65p9tc
p5052
(dp5053
g3
I0
sg4
I0
sg5
I1
ssV64h43y
p5054
(dp5055
g3
I3
sg4
I0
sg5
I10
ssV66bo28
p5056
(dp5057
g3
I0
sg4
I0
sg5
I3
ssV65wnrw
p5058
(dp5059
g3
I0
sg4
I0
sg5
I4
ssV65k6l3
p5060
(dp5061
g3
I10
sg4
I0
sg5
I25
ssV65ibme
p5062
(dp5063
g3
I0
sg4
I0
sg5
I1
ssV656axw
p5064
(dp5065
g3
I1
sg4
I0
sg5
I3
ssV65d076
p5066
(dp5067
g3
I0
sg4
I0
sg5
I4
ssV65rub3
p5068
(dp5069
g3
I2
sg4
I0
sg5
I1
ssV65rub5
p5070
(dp5071
g3
I6
sg4
I0
sg5
I5
ssV63fx6g
p5072
(dp5073
g3
I0
sg4
I0
sg5
I2
ssV6715hz
p5074
(dp5075
g3
I0
sg4
I0
sg5
I9
ssV64ojn6
p5076
(dp5077
g3
I0
sg4
I0
sg5
I20
ssV65uar6
p5078
(dp5079
g3
I2
sg4
I0
sg5
I6
ssV65flel
p5080
(dp5081
g3
I0
sg4
I0
sg5
I0
ssV66swvx
p5082
(dp5083
g3
I0
sg4
I0
sg5
I4
ssV2ve6ds
p5084
(dp5085
g3
I0
sg4
I0
sg5
I6
ssV65ls0z
p5086
(dp5087
g3
I4
sg4
I0
sg5
I3
ssV65etsq
p5088
(dp5089
g3
I2
sg4
I0
sg5
I3
ssV1g8pl5
p5090
(dp5091
g3
I12
sg4
I0
sg5
I431
ssV6641wc
p5092
(dp5093
g3
I1
sg4
I0
sg5
I3
ssV6716p7
p5094
(dp5095
g3
I0
sg4
I0
sg5
I4
ssV65p3aw
p5096
(dp5097
g3
I1
sg4
I0
sg5
I8
ssV65jcr1
p5098
(dp5099
g3
I0
sg4
I0
sg5
I0
ssV65m6nn
p5100
(dp5101
g3
I5
sg4
I0
sg5
I66
ssV65eabc
p5102
(dp5103
g3
I0
sg4
I0
sg5
I4
ssV2v4njz
p5104
(dp5105
g3
I0
sg4
I0
sg5
I0
ssV65nvxx
p5106
(dp5107
g3
I0
sg4
I0
sg5
I1
ssV65rqz9
p5108
(dp5109
g3
I3
sg4
I0
sg5
I51
ssV644scb
p5110
(dp5111
g3
I0
sg4
I0
sg5
I3
ssV65v8y3
p5112
(dp5113
g3
I15
sg4
I0
sg5
I54
ssV64d0fo
p5114
(dp5115
g3
I1
sg4
I0
sg5
I7
ssV1hwa2s
p5116
(dp5117
g3
I10
sg4
I0
sg5
I91
ssV65qfk3
p5118
(dp5119
g3
I1
sg4
I0
sg5
I2
ssV64jlgj
p5120
(dp5121
g3
I3
sg4
I0
sg5
I4
ssV65mlrh
p5122
(dp5123
g3
I0
sg4
I0
sg5
I0
ssV65eje2
p5124
(dp5125
g3
I2
sg4
I0
sg5
I1
ssV63wxnq
p5126
(dp5127
g3
I0
sg4
I0
sg5
I0
ssV66srb3
p5128
(dp5129
g3
I1
sg4
I0
sg5
I0
ssV65ihz5
p5130
(dp5131
g3
I0
sg4
I0
sg5
I1
ssV65kzpl
p5132
(dp5133
g3
I0
sg4
I0
sg5
I3
ssV65iyd2
p5134
(dp5135
g3
I0
sg4
I0
sg5
I0
ssV65joib
p5136
(dp5137
g3
I2
sg4
I0
sg5
I9
ssV66a5r5
p5138
(dp5139
g3
I3
sg4
I0
sg5
I10
ssV62i401
p5140
(dp5141
g3
I2
sg4
I0
sg5
I2
ssV65jl2d
p5142
(dp5143
g3
I0
sg4
I0
sg5
I0
ssV65pkui
p5144
(dp5145
g3
I2
sg4
I0
sg5
I1
ssV65q94n
p5146
(dp5147
g3
I0
sg4
I0
sg5
I1
ssV665vbp
p5148
(dp5149
g3
I4
sg4
I0
sg5
I9
ssV65i6y4
p5150
(dp5151
g3
I0
sg4
I0
sg5
I0
ssV6685jl
p5152
(dp5153
g3
I0
sg4
I0
sg5
I1
ssV65tny0
p5154
(dp5155
g3
I1
sg4
I0
sg5
I0
ssV65pgg6
p5156
(dp5157
g3
I2
sg4
I0
sg5
I2
ssV65t8hc
p5158
(dp5159
g3
I0
sg4
I0
sg5
I0
ssV63w70h
p5160
(dp5161
g3
I0
sg4
I0
sg5
I9
ssV2v93b8
p5162
(dp5163
g3
I1
sg4
I0
sg5
I2
ssV65stln
p5164
(dp5165
g3
I4
sg4
I0
sg5
I34
ssV65ncap
p5166
(dp5167
g3
I0
sg4
I0
sg5
I2
ssV64s8uk
p5168
(dp5169
g3
I0
sg4
I0
sg5
I2
ssV65qfkn
p5170
(dp5171
g3
I0
sg4
I0
sg5
I0
ssV64eiyk
p5172
(dp5173
g3
I1
sg4
I0
sg5
I1
ssV62u04r
p5174
(dp5175
g3
I5
sg4
I0
sg5
I8
ssV65ugd7
p5176
(dp5177
g3
I2
sg4
I0
sg5
I0
ssV65mwjg
p5178
(dp5179
g3
I0
sg4
I0
sg5
I13
ssV2v7pkd
p5180
(dp5181
g3
I0
sg4
I0
sg5
I0
ssV65g5qh
p5182
(dp5183
g3
I5
sg4
I0
sg5
I0
ssV1i42b3
p5184
(dp5185
g3
I3
sg4
I0
sg5
I91
ssV65gq6c
p5186
(dp5187
g3
I1
sg4
I0
sg5
I1
ssV64jsd7
p5188
(dp5189
g3
I2
sg4
I0
sg5
I0
ssV65johm
p5190
(dp5191
g3
I0
sg4
I0
sg5
I0
ssV1idrce
p5192
(dp5193
g3
I0
sg4
I0
sg5
I25
ssV64kf5w
p5194
(dp5195
g3
I3
sg4
I0
sg5
I7
ssV64mlhf
p5196
(dp5197
g3
I0
sg4
I0
sg5
I4
ssV6305xj
p5198
(dp5199
g3
I1
sg4
I0
sg5
I6
ssV65qpel
p5200
(dp5201
g3
I0
sg4
I0
sg5
I3
ssV65hafp
p5202
(dp5203
g3
I0
sg4
I0
sg5
I6
ssV65fl07
p5204
(dp5205
g3
I5
sg4
I0
sg5
I21
ssV65fc72
p5206
(dp5207
g3
I3
sg4
I0
sg5
I20
ssV65nbe2
p5208
(dp5209
g3
I1
sg4
I0
sg5
I2
ssV65mdsb
p5210
(dp5211
g3
I3
sg4
I0
sg5
I2
ssV65sovg
p5212
(dp5213
g3
I3
sg4
I0
sg5
I3
ssV65u0lu
p5214
(dp5215
g3
I9
sg4
I0
sg5
I6
ssV63xk8l
p5216
(dp5217
g3
I0
sg4
I0
sg5
I1
ssV65p2ma
p5218
(dp5219
g3
I0
sg4
I0
sg5
I2
ssV2v512a
p5220
(dp5221
g3
I0
sg4
I0
sg5
I0
ssV65ikpm
p5222
(dp5223
g3
I3
sg4
I0
sg5
I33
ssV65nh46
p5224
(dp5225
g3
I1
sg4
I0
sg5
I0
ssV65hafe
p5226
(dp5227
g3
I5
sg4
I0
sg5
I2
ssV65tnwb
p5228
(dp5229
g3
I1
sg4
I0
sg5
I2
ssV638wli
p5230
(dp5231
g3
I0
sg4
I0
sg5
I1
ssV2vdm9n
p5232
(dp5233
g3
I0
sg4
I0
sg5
I2
ssV65jat1
p5234
(dp5235
g3
I2
sg4
I0
sg5
I2
ssV65os82
p5236
(dp5237
g3
I1
sg4
I0
sg5
I1
ssV63andh
p5238
(dp5239
g3
I1
sg4
I0
sg5
I8
ssV65k70x
p5240
(dp5241
g3
I9
sg4
I0
sg5
I50
ssV1huotc
p5242
(dp5243
g3
I1
sg4
I0
sg5
I25
ssV65rv0s
p5244
(dp5245
g3
I3
sg4
I0
sg5
I3
ssV65o77s
p5246
(dp5247
g3
I1
sg4
I0
sg5
I0
ssV2v4yb5
p5248
(dp5249
g3
I1
sg4
I0
sg5
I2
ssV66968a
p5250
(dp5251
g3
I3
sg4
I0
sg5
I2
ssV63vnb3
p5252
(dp5253
g3
I0
sg4
I0
sg5
I2
ssV65k25h
p5254
(dp5255
g3
I6
sg4
I0
sg5
I13
ssV65k09x
p5256
(dp5257
g3
I0
sg4
I0
sg5
I0
ssV65ujuh
p5258
(dp5259
g3
I1
sg4
I0
sg5
I41
ssV65wfw3
p5260
(dp5261
g3
I0
sg4
I0
sg5
I3
ssV657321
p5262
(dp5263
g3
I1
sg4
I0
sg5
I37
ssV64sjga
p5264
(dp5265
g3
I0
sg4
I0
sg5
I15
ssV1g955r
p5266
(dp5267
g3
I0
sg4
I0
sg5
I6
ssV65cj6t
p5268
(dp5269
g3
I1
sg4
I0
sg5
I5
ssV65mg0f
p5270
(dp5271
g3
I0
sg4
I0
sg5
I3
ssV63gavi
p5272
(dp5273
g3
I5
sg4
I0
sg5
I144
ssV65vwu6
p5274
(dp5275
g3
I0
sg4
I0
sg5
I0
ssV65ew2s
p5276
(dp5277
g3
I0
sg4
I0
sg5
I2
ssV65id9n
p5278
(dp5279
g3
I0
sg4
I0
sg5
I0
ssV66p0w2
p5280
(dp5281
g3
I0
sg4
I0
sg5
I14
ssVxkj9c
p5282
(dp5283
g3
I21
sg4
I0
sg5
I89
ssV65v13p
p5284
(dp5285
g3
I0
sg4
I0
sg5
I0
ssV65okq5
p5286
(dp5287
g3
I6
sg4
I0
sg5
I12
ssV65q6oh
p5288
(dp5289
g3
I1
sg4
I0
sg5
I1
ssV65sw13
p5290
(dp5291
g3
I1
sg4
I0
sg5
I25
ssV63thqv
p5292
(dp5293
g3
I3
sg4
I0
sg5
I11
ssV64x3fq
p5294
(dp5295
g3
I0
sg4
I0
sg5
I38
ssV65ev20
p5296
(dp5297
g3
I2
sg4
I0
sg5
I13
ssV63a6wr
p5298
(dp5299
g3
I1
sg4
I0
sg5
I17
ssV64hc9e
p5300
(dp5301
g3
I0
sg4
I0
sg5
I0
ssV1id3s4
p5302
(dp5303
g3
I5
sg4
I0
sg5
I40
ssV65nfuv
p5304
(dp5305
g3
I1
sg4
I0
sg5
I1
ssV65fwni
p5306
(dp5307
g3
I7
sg4
I0
sg5
I159
ssV1ginnm
p5308
(dp5309
g3
I3
sg4
I0
sg5
I0
ssV65hufl
p5310
(dp5311
g3
I1
sg4
I0
sg5
I0
ssV65wu3b
p5312
(dp5313
g3
I3
sg4
I0
sg5
I0
ssV1idxvu
p5314
(dp5315
g3
I0
sg4
I0
sg5
I12
ssV65u0i6
p5316
(dp5317
g3
I0
sg4
I0
sg5
I0
ssV65kah9
p5318
(dp5319
g3
I5
sg4
I0
sg5
I8
ssV65wiyb
p5320
(dp5321
g3
I5
sg4
I0
sg5
I7
ssV65sh6x
p5322
(dp5323
g3
I0
sg4
I0
sg5
I3
ssV66jrsx
p5324
(dp5325
g3
I9
sg4
I0
sg5
I69
ssV65vy44
p5326
(dp5327
g3
I1
sg4
I0
sg5
I0
ssV65nkin
p5328
(dp5329
g3
I0
sg4
I0
sg5
I2
ssV65wgi8
p5330
(dp5331
g3
I0
sg4
I0
sg5
I9
ssV65jbqc
p5332
(dp5333
g3
I0
sg4
I0
sg5
I0
ssV65reff
p5334
(dp5335
g3
I0
sg4
I0
sg5
I0
ssV65nkrq
p5336
(dp5337
g3
I1
sg4
I0
sg5
I0
ssV2vjmys
p5338
(dp5339
g3
I141
sg4
I0
sg5
I1901
ssV1f5vzw
p5340
(dp5341
g3
I18
sg4
I0
sg5
I811
ssV66mm8y
p5342
(dp5343
g3
I1
sg4
I0
sg5
I14
ssV65mzup
p5344
(dp5345
g3
I347
sg4
I0
sg5
I8285
ssVxkaiu
p5346
(dp5347
g3
I0
sg4
I0
sg5
I0
ssV65rf0p
p5348
(dp5349
g3
I2
sg4
I0
sg5
I15
ssV2v1qxb
p5350
(dp5351
g3
I0
sg4
I0
sg5
I1
ssV65o0wt
p5352
(dp5353
g3
I3
sg4
I0
sg5
I6
ssV65jmfs
p5354
(dp5355
g3
I4
sg4
I0
sg5
I22
ssV65v0sw
p5356
(dp5357
g3
I1
sg4
I0
sg5
I9
ssV2vi861
p5358
(dp5359
g3
I0
sg4
I0
sg5
I2
ssV65t976
p5360
(dp5361
g3
I3
sg4
I0
sg5
I0
ssV65jofv
p5362
(dp5363
g3
I8
sg4
I0
sg5
I21
ssV65nvd4
p5364
(dp5365
g3
I9
sg4
I0
sg5
I23
ssV2v5hua
p5366
(dp5367
g3
I0
sg4
I0
sg5
I11
ssV66erhv
p5368
(dp5369
g3
I0
sg4
I0
sg5
I12
ssV2v25ih
p5370
(dp5371
g3
I0
sg4
I0
sg5
I34
ssV65rw32
p5372
(dp5373
g3
I0
sg4
I0
sg5
I1
ssV65tcm2
p5374
(dp5375
g3
I2
sg4
I0
sg5
I11
ssV6713lv
p5376
(dp5377
g3
I0
sg4
I0
sg5
I2
ssV6675lp
p5378
(dp5379
g3
I0
sg4
I0
sg5
I0
ssV65r1iu
p5380
(dp5381
g3
I0
sg4
I0
sg5
I1
ssV65ja3m
p5382
(dp5383
g3
I0
sg4
I0
sg5
I6
ssV65g0k0
p5384
(dp5385
g3
I1
sg4
I0
sg5
I0
ssV65hij4
p5386
(dp5387
g3
I0
sg4
I0
sg5
I1
ssV66gzhn
p5388
(dp5389
g3
I5
sg4
I0
sg5
I80
ssV1epc2w
p5390
(dp5391
g3
I0
sg4
I0
sg5
I1
ssV1idoky
p5392
(dp5393
g3
I7
sg4
I0
sg5
I166
ssV64y90f
p5394
(dp5395
g3
I0
sg4
I0
sg5
I5
ssV65o91s
p5396
(dp5397
g3
I3
sg4
I0
sg5
I3
ssV65ssmv
p5398
(dp5399
g3
I0
sg4
I0
sg5
I2
ssV65k9c5
p5400
(dp5401
g3
I0
sg4
I0
sg5
I1
ssV65kgdp
p5402
(dp5403
g3
I10
sg4
I0
sg5
I878
ssV1idhgk
p5404
(dp5405
g3
I3
sg4
I0
sg5
I48
ssV65nljb
p5406
(dp5407
g3
I3
sg4
I0
sg5
I0
ssV65hat0
p5408
(dp5409
g3
I0
sg4
I0
sg5
I6
ssV65gj8w
p5410
(dp5411
g3
I3
sg4
I0
sg5
I25
ssV65rghk
p5412
(dp5413
g3
I4
sg4
I0
sg5
I14
ssV65ou6j
p5414
(dp5415
g3
I5
sg4
I0
sg5
I42
ssV1gix4b
p5416
(dp5417
g3
I4
sg4
I0
sg5
I54
ssV65gliq
p5418
(dp5419
g3
I4
sg4
I0
sg5
I2
ssV65hqjp
p5420
(dp5421
g3
I0
sg4
I0
sg5
I2
ssV65r70g
p5422
(dp5423
g3
I1
sg4
I0
sg5
I2
ssV65qqsn
p5424
(dp5425
g3
I1
sg4
I0
sg5
I1
ssV65w39s
p5426
(dp5427
g3
I1
sg4
I0
sg5
I2
ssV66ye3t
p5428
(dp5429
g3
I0
sg4
I0
sg5
I0
ssV65lkic
p5430
(dp5431
g3
I0
sg4
I0
sg5
I1
ssV1ep333
p5432
(dp5433
g3
I5
sg4
I0
sg5
I68
ssV63qyvf
p5434
(dp5435
g3
I0
sg4
I0
sg5
I2
ssV65arsu
p5436
(dp5437
g3
I1
sg4
I0
sg5
I20
ssV66qeo7
p5438
(dp5439
g3
I7
sg4
I0
sg5
I70
ssV65o6yi
p5440
(dp5441
g3
I6
sg4
I0
sg5
I32
ssV65inj7
p5442
(dp5443
g3
I1
sg4
I0
sg5
I0
ssV66yrz2
p5444
(dp5445
g3
I0
sg4
I0
sg5
I13
ssV62lfb8
p5446
(dp5447
g3
I0
sg4
I0
sg5
I7
ssV65fu1u
p5448
(dp5449
g3
I1
sg4
I0
sg5
I1
ssV65j8e6
p5450
(dp5451
g3
I5
sg4
I0
sg5
I36
ssV63spw9
p5452
(dp5453
g3
I0
sg4
I0
sg5
I9
ssV65u73w
p5454
(dp5455
g3
I2
sg4
I0
sg5
I3
ssV651xnd
p5456
(dp5457
g3
I0
sg4
I0
sg5
I14
ssV65oqio
p5458
(dp5459
g3
I0
sg4
I0
sg5
I0
ssV63dbve
p5460
(dp5461
g3
I0
sg4
I0
sg5
I5
ssV1epffv
p5462
(dp5463
g3
I1
sg4
I0
sg5
I32
ssV643bgu
p5464
(dp5465
g3
I1
sg4
I0
sg5
I0
ssV65k1wd
p5466
(dp5467
g3
I2
sg4
I0
sg5
I0
ssVxjkgm
p5468
(dp5469
g3
I16
sg4
I0
sg5
I47
ssV65ny3c
p5470
(dp5471
g3
I1
sg4
I0
sg5
I2
ssV66er39
p5472
(dp5473
g3
I8
sg4
I0
sg5
I0
ssV65ilbp
p5474
(dp5475
g3
I0
sg4
I0
sg5
I0
ssV647qew
p5476
(dp5477
g3
I0
sg4
I0
sg5
I1
ssV65g6ze
p5478
(dp5479
g3
I0
sg4
I0
sg5
I2
ssV65lnev
p5480
(dp5481
g3
I3
sg4
I0
sg5
I0
ssV639l8f
p5482
(dp5483
g3
I0
sg4
I0
sg5
I1
ssV63tb24
p5484
(dp5485
g3
I6
sg4
I0
sg5
I150
ssV65rnxm
p5486
(dp5487
g3
I2
sg4
I0
sg5
I1
ssV65svmv
p5488
(dp5489
g3
I2
sg4
I0
sg5
I0
ssV66pzfz
p5490
(dp5491
g3
I0
sg4
I0
sg5
I5
ssV65masg
p5492
(dp5493
g3
I0
sg4
I0
sg5
I1
ssV63nipo
p5494
(dp5495
g3
I2
sg4
I0
sg5
I21
ssV65uamp
p5496
(dp5497
g3
I4
sg4
I0
sg5
I3
ssV64oz6h
p5498
(dp5499
g3
I2
sg4
I0
sg5
I1
ssV66laf6
p5500
(dp5501
g3
I0
sg4
I0
sg5
I4
ssV6593tt
p5502
(dp5503
g3
I4
sg4
I0
sg5
I3
ssV65jg2p
p5504
(dp5505
g3
I2
sg4
I0
sg5
I1
ssV65iabr
p5506
(dp5507
g3
I4
sg4
I0
sg5
I15
ssV1g3pyy
p5508
(dp5509
g3
I1
sg4
I0
sg5
I34
ssV64vbcp
p5510
(dp5511
g3
I0
sg4
I0
sg5
I1
ssV65m46h
p5512
(dp5513
g3
I4
sg4
I0
sg5
I44
ssV65v60h
p5514
(dp5515
g3
I2
sg4
I0
sg5
I1
ssV65galw
p5516
(dp5517
g3
I1
sg4
I0
sg5
I3
ssV65oc69
p5518
(dp5519
g3
I4
sg4
I0
sg5
I0
ssV6702uc
p5520
(dp5521
g3
I0
sg4
I0
sg5
I4
ssV65h5id
p5522
(dp5523
g3
I2
sg4
I0
sg5
I1
ssV65eql9
p5524
(dp5525
g3
I9
sg4
I0
sg5
I34
ssV63rikv
p5526
(dp5527
g3
I1
sg4
I0
sg5
I1
ssV65rd28
p5528
(dp5529
g3
I0
sg4
I0
sg5
I3
ssV63iu4t
p5530
(dp5531
g3
I6
sg4
I0
sg5
I357
ssV65hzau
p5532
(dp5533
g3
I0
sg4
I0
sg5
I0
ssVxk2mb
p5534
(dp5535
g3
I2
sg4
I0
sg5
I0
ssV65hrq8
p5536
(dp5537
g3
I4
sg4
I0
sg5
I0
ssV1i54su
p5538
(dp5539
g3
I20
sg4
I0
sg5
I393
ssV2vezbm
p5540
(dp5541
g3
I1
sg4
I0
sg5
I6
ssV66aung
p5542
(dp5543
g3
I1
sg4
I0
sg5
I8
ssV62tsfm
p5544
(dp5545
g3
I1
sg4
I0
sg5
I5
ssV65qofy
p5546
(dp5547
g3
I1
sg4
I0
sg5
I3
ssV1hfhyx
p5548
(dp5549
g3
I0
sg4
I0
sg5
I0
ssV65wbdh
p5550
(dp5551
g3
I0
sg4
I0
sg5
I0
ssV1idw15
p5552
(dp5553
g3
I0
sg4
I0
sg5
I0
ssV65prnt
p5554
(dp5555
g3
I0
sg4
I0
sg5
I0
ssVxjtq5
p5556
(dp5557
g3
I10
sg4
I0
sg5
I20
ssV1eq5tg
p5558
(dp5559
g3
I2
sg4
I0
sg5
I34
ssV66mwt4
p5560
(dp5561
g3
I0
sg4
I0
sg5
I4
ssV64jui1
p5562
(dp5563
g3
I1
sg4
I0
sg5
I14
ssV64k0k0
p5564
(dp5565
g3
I33
sg4
I0
sg5
I1353
ssV654nw9
p5566
(dp5567
g3
I2
sg4
I0
sg5
I51
ssV1ibu3i
p5568
(dp5569
g3
I3
sg4
I0
sg5
I124
ssV65l6ad
p5570
(dp5571
g3
I4
sg4
I0
sg5
I54
ssV66wthq
p5572
(dp5573
g3
I0
sg4
I0
sg5
I14
ssV62z71k
p5574
(dp5575
g3
I0
sg4
I0
sg5
I8
ssV66u3df
p5576
(dp5577
g3
I1
sg4
I0
sg5
I7
ssV65pgvi
p5578
(dp5579
g3
I7
sg4
I0
sg5
I0
ssV65j486
p5580
(dp5581
g3
I0
sg4
I0
sg5
I1
ssV65gvhv
p5582
(dp5583
g3
I1
sg4
I0
sg5
I6
ssV1hrmos
p5584
(dp5585
g3
I0
sg4
I0
sg5
I0
ssV64fl7c
p5586
(dp5587
g3
I4
sg4
I0
sg5
I18
ssV668hls
p5588
(dp5589
g3
I0
sg4
I0
sg5
I0
ssV63n5vv
p5590
(dp5591
g3
I0
sg4
I0
sg5
I0
ssV65p67c
p5592
(dp5593
g3
I3
sg4
I0
sg5
I8
ssV63ri5e
p5594
(dp5595
g3
I0
sg4
I0
sg5
I0
ssV65rr8r
p5596
(dp5597
g3
I0
sg4
I0
sg5
I0
ssV63l26b
p5598
(dp5599
g3
I11
sg4
I0
sg5
I479
ssV65f21o
p5600
(dp5601
g3
I0
sg4
I0
sg5
I1
ssV65a3p6
p5602
(dp5603
g3
I0
sg4
I0
sg5
I5
ssV65ldfz
p5604
(dp5605
g3
I1
sg4
I0
sg5
I21
ssV66qgaj
p5606
(dp5607
g3
I3
sg4
I0
sg5
I115
ssV65kzq7
p5608
(dp5609
g3
I47
sg4
I0
sg5
I1926
ssV65esrt
p5610
(dp5611
g3
I2
sg4
I0
sg5
I13
ssV65qhza
p5612
(dp5613
g3
I7
sg4
I0
sg5
I5
ssV66qtrp
p5614
(dp5615
g3
I0
sg4
I0
sg5
I3
ssV63swk4
p5616
(dp5617
g3
I1
sg4
I0
sg5
I15
ssV65qcp8
p5618
(dp5619
g3
I0
sg4
I0
sg5
I1
ssV65q9cy
p5620
(dp5621
g3
I0
sg4
I0
sg5
I5
ssV2vgw6j
p5622
(dp5623
g3
I3
sg4
I0
sg5
I19
ssV65kjrm
p5624
(dp5625
g3
I0
sg4
I0
sg5
I1
ssV643ao3
p5626
(dp5627
g3
I1
sg4
I0
sg5
I3
ssV66jnxm
p5628
(dp5629
g3
I0
sg4
I0
sg5
I1
ssV65kpmo
p5630
(dp5631
g3
I0
sg4
I0
sg5
I0
ssV65yfli
p5632
(dp5633
g3
I0
sg4
I0
sg5
I12
ssV63gqm6
p5634
(dp5635
g3
I0
sg4
I0
sg5
I1
ssV65cz7n
p5636
(dp5637
g3
I0
sg4
I0
sg5
I7
ssV65rom9
p5638
(dp5639
g3
I0
sg4
I0
sg5
I0
ssV65k6mj
p5640
(dp5641
g3
I0
sg4
I0
sg5
I3
ssV65ncn6
p5642
(dp5643
g3
I2
sg4
I0
sg5
I4
ssV65mwe5
p5644
(dp5645
g3
I0
sg4
I0
sg5
I0
ssV62q55m
p5646
(dp5647
g3
I10
sg4
I0
sg5
I188
ssV63bfv2
p5648
(dp5649
g3
I0
sg4
I0
sg5
I1
ssV65izsl
p5650
(dp5651
g3
I0
sg4
I0
sg5
I1
ssV672enm
p5652
(dp5653
g3
I2
sg4
I0
sg5
I11
ssV63rqwp
p5654
(dp5655
g3
I2
sg4
I0
sg5
I25
ssV65nfhd
p5656
(dp5657
g3
I6
sg4
I0
sg5
I26
ssV65qw2h
p5658
(dp5659
g3
I0
sg4
I0
sg5
I6
ssV65nen8
p5660
(dp5661
g3
I0
sg4
I0
sg5
I8
ssV64z4fi
p5662
(dp5663
g3
I1
sg4
I0
sg5
I2
ssV65ti6t
p5664
(dp5665
g3
I2
sg4
I0
sg5
I0
ssV65gvh2
p5666
(dp5667
g3
I0
sg4
I0
sg5
I5
ssV64lvmg
p5668
(dp5669
g3
I9
sg4
I0
sg5
I7
ssV65w1m0
p5670
(dp5671
g3
I0
sg4
I0
sg5
I0
ssV65aysb
p5672
(dp5673
g3
I6
sg4
I0
sg5
I57
ssV63roef
p5674
(dp5675
g3
I0
sg4
I0
sg5
I5
ssV65g8gt
p5676
(dp5677
g3
I7
sg4
I0
sg5
I201
ssV63e4rg
p5678
(dp5679
g3
I1
sg4
I0
sg5
I5
ssV640c6u
p5680
(dp5681
g3
I0
sg4
I0
sg5
I9
ssV65sfic
p5682
(dp5683
g3
I0
sg4
I0
sg5
I0
ssV62ev1s
p5684
(dp5685
g3
I3
sg4
I0
sg5
I25
ssV65h4qr
p5686
(dp5687
g3
I0
sg4
I0
sg5
I2
ssV65k8k3
p5688
(dp5689
g3
I1
sg4
I0
sg5
I2
ssV6712ka
p5690
(dp5691
g3
I0
sg4
I0
sg5
I2
ssV63noeq
p5692
(dp5693
g3
I1
sg4
I0
sg5
I0
ssV66343f
p5694
(dp5695
g3
I0
sg4
I0
sg5
I10
ssV65f57l
p5696
(dp5697
g3
I7
sg4
I0
sg5
I61
ssV64bgt1
p5698
(dp5699
g3
I1
sg4
I0
sg5
I11
ssV63r2im
p5700
(dp5701
g3
I14
sg4
I0
sg5
I314
ssV1ilm7r
p5702
(dp5703
g3
I8
sg4
I0
sg5
I477
ssV65qspf
p5704
(dp5705
g3
I0
sg4
I0
sg5
I0
ssV647t96
p5706
(dp5707
g3
I0
sg4
I0
sg5
I0
ssV65kew1
p5708
(dp5709
g3
I0
sg4
I0
sg5
I24
ssV65n3qi
p5710
(dp5711
g3
I4
sg4
I0
sg5
I3
ssV659dgl
p5712
(dp5713
g3
I1
sg4
I0
sg5
I6
ssV65gzqt
p5714
(dp5715
g3
I4
sg4
I0
sg5
I38
ssV2vjmdn
p5716
(dp5717
g3
I0
sg4
I0
sg5
I0
ssV64xdl1
p5718
(dp5719
g3
I3
sg4
I0
sg5
I43
ssV65oj8h
p5720
(dp5721
g3
I20
sg4
I0
sg5
I227
ssV65x5kp
p5722
(dp5723
g3
I3
sg4
I0
sg5
I29
ssV65g030
p5724
(dp5725
g3
I0
sg4
I0
sg5
I0
ssV65gk15
p5726
(dp5727
g3
I1
sg4
I0
sg5
I0
ssV6577j5
p5728
(dp5729
g3
I2
sg4
I0
sg5
I12
ssV65t0ki
p5730
(dp5731
g3
I3
sg4
I0
sg5
I0
ssV66sl5q
p5732
(dp5733
g3
I0
sg4
I0
sg5
I6
ssV2v9dam
p5734
(dp5735
g3
I1
sg4
I0
sg5
I55
ssV65i0ii
p5736
(dp5737
g3
I0
sg4
I0
sg5
I1
ssV65js8s
p5738
(dp5739
g3
I0
sg4
I0
sg5
I0
ssV668xil
p5740
(dp5741
g3
I1
sg4
I0
sg5
I4
ssV65nxs8
p5742
(dp5743
g3
I9
sg4
I0
sg5
I194
ssV65myqg
p5744
(dp5745
g3
I2
sg4
I0
sg5
I0
ssVxkn0p
p5746
(dp5747
g3
I2
sg4
I0
sg5
I38
ssV647caf
p5748
(dp5749
g3
I0
sg4
I0
sg5
I14
ssV65p8lq
p5750
(dp5751
g3
I29
sg4
I0
sg5
I562
ssV65nftx
p5752
(dp5753
g3
I0
sg4
I0
sg5
I0
ssV65jdec
p5754
(dp5755
g3
I0
sg4
I0
sg5
I1
ssV65i6m7
p5756
(dp5757
g3
I0
sg4
I0
sg5
I0
ssV65p3bu
p5758
(dp5759
g3
I0
sg4
I0
sg5
I0
ssV65j17n
p5760
(dp5761
g3
I0
sg4
I0
sg5
I0
ssV65pofo
p5762
(dp5763
g3
I2
sg4
I0
sg5
I1
ssV65alh3
p5764
(dp5765
g3
I0
sg4
I0
sg5
I2
ssV633ov9
p5766
(dp5767
g3
I2
sg4
I0
sg5
I14
ssV664gno
p5768
(dp5769
g3
I0
sg4
I0
sg5
I5
ssV65md5w
p5770
(dp5771
g3
I1
sg4
I0
sg5
I14
ssV672eza
p5772
(dp5773
g3
I0
sg4
I0
sg5
I0
ssV65l5a3
p5774
(dp5775
g3
I0
sg4
I0
sg5
I2
ssV1if4cf
p5776
(dp5777
g3
I6
sg4
I0
sg5
I183
ssV633nbf
p5778
(dp5779
g3
I13
sg4
I0
sg5
I68
ssV65h6ok
p5780
(dp5781
g3
I1
sg4
I0
sg5
I3
ssV62nadv
p5782
(dp5783
g3
I3
sg4
I0
sg5
I118
ssV65lo37
p5784
(dp5785
g3
I8
sg4
I0
sg5
I298
ssV62tdek
p5786
(dp5787
g3
I0
sg4
I0
sg5
I1
ssV66cfhq
p5788
(dp5789
g3
I0
sg4
I0
sg5
I5
ssV63q94w
p5790
(dp5791
g3
I1
sg4
I0
sg5
I13
ssV6677oj
p5792
(dp5793
g3
I1
sg4
I0
sg5
I5
ssV65qu3s
p5794
(dp5795
g3
I1
sg4
I0
sg5
I21
ssV6447ij
p5796
(dp5797
g3
I0
sg4
I0
sg5
I4
ssV645ems
p5798
(dp5799
g3
I0
sg4
I0
sg5
I0
ssV65xcvi
p5800
(dp5801
g3
I1
sg4
I0
sg5
I2
ssV65kkz3
p5802
(dp5803
g3
I3
sg4
I0
sg5
I2
ssV65jw2e
p5804
(dp5805
g3
I1
sg4
I0
sg5
I2
ssV65gtrr
p5806
(dp5807
g3
I1
sg4
I0
sg5
I0
ssV63lh1w
p5808
(dp5809
g3
I1
sg4
I0
sg5
I17
ssV65mnxk
p5810
(dp5811
g3
I1
sg4
I0
sg5
I0
ssV65qwzr
p5812
(dp5813
g3
I1
sg4
I0
sg5
I5
ssV65gk4t
p5814
(dp5815
g3
I1
sg4
I0
sg5
I0
ssV65fca7
p5816
(dp5817
g3
I0
sg4
I0
sg5
I10
ssV65wr8t
p5818
(dp5819
g3
I1
sg4
I0
sg5
I2
ssV65l23q
p5820
(dp5821
g3
I3
sg4
I0
sg5
I5
ssV65pqjw
p5822
(dp5823
g3
I1
sg4
I0
sg5
I95
ssV65p07z
p5824
(dp5825
g3
I0
sg4
I0
sg5
I0
ssV1ihdzq
p5826
(dp5827
g3
I0
sg4
I0
sg5
I3
ssV65vsrv
p5828
(dp5829
g3
I14
sg4
I0
sg5
I260
ssV2vhizd
p5830
(dp5831
g3
I6
sg4
I0
sg5
I63
ssV65v4zi
p5832
(dp5833
g3
I5
sg4
I0
sg5
I8
ssV65fqqt
p5834
(dp5835
g3
I1
sg4
I0
sg5
I2
ssV66bydd
p5836
(dp5837
g3
I0
sg4
I0
sg5
I0
ssV65sv7z
p5838
(dp5839
g3
I2
sg4
I0
sg5
I0
ssV65ujr2
p5840
(dp5841
g3
I11
sg4
I0
sg5
I138
ssV65rw0p
p5842
(dp5843
g3
I0
sg4
I0
sg5
I0
ssV66yr0u
p5844
(dp5845
g3
I2
sg4
I0
sg5
I28
ssV65l1g1
p5846
(dp5847
g3
I3
sg4
I0
sg5
I34
ssV64hisc
p5848
(dp5849
g3
I1
sg4
I0
sg5
I2
ssV65voxe
p5850
(dp5851
g3
I0
sg4
I0
sg5
I2
ssV65jie3
p5852
(dp5853
g3
I4
sg4
I0
sg5
I60
ssV65n4k5
p5854
(dp5855
g3
I1
sg4
I0
sg5
I0
ssV2v4zao
p5856
(dp5857
g3
I1
sg4
I0
sg5
I3
ssV64n0nc
p5858
(dp5859
g3
I1
sg4
I0
sg5
I2
ssV642njs
p5860
(dp5861
g3
I2
sg4
I0
sg5
I41
ssVxk07i
p5862
(dp5863
g3
I0
sg4
I0
sg5
I0
ssV66vcap
p5864
(dp5865
g3
I0
sg4
I0
sg5
I23
ssV65w54k
p5866
(dp5867
g3
I0
sg4
I0
sg5
I3
ssV65qog9
p5868
(dp5869
g3
I1
sg4
I0
sg5
I18
ssV62qlf9
p5870
(dp5871
g3
I0
sg4
I0
sg5
I9
ssV65rokw
p5872
(dp5873
g3
I1
sg4
I0
sg5
I6
ssV65qozn
p5874
(dp5875
g3
I3
sg4
I0
sg5
I54
ssV638g50
p5876
(dp5877
g3
I0
sg4
I0
sg5
I31
ssV662tvt
p5878
(dp5879
g3
I10
sg4
I0
sg5
I26
ssV65ows2
p5880
(dp5881
g3
I129
sg4
I0
sg5
I5489
ssV65s71f
p5882
(dp5883
g3
I69
sg4
I0
sg5
I2176
ssV1eaask
p5884
(dp5885
g3
I5
sg4
I0
sg5
I6
ssV65x7ju
p5886
(dp5887
g3
I0
sg4
I0
sg5
I1
ssV65r2l3
p5888
(dp5889
g3
I0
sg4
I0
sg5
I1
ssV65jrpn
p5890
(dp5891
g3
I0
sg4
I0
sg5
I0
ssV66b9t2
p5892
(dp5893
g3
I1
sg4
I0
sg5
I1
ssV65qpfx
p5894
(dp5895
g3
I2
sg4
I0
sg5
I2
ssV2vdaye
p5896
(dp5897
g3
I6
sg4
I0
sg5
I30
ssV65mzq9
p5898
(dp5899
g3
I2
sg4
I0
sg5
I3
ssV1idatf
p5900
(dp5901
g3
I0
sg4
I0
sg5
I23
ssV62mest
p5902
(dp5903
g3
I0
sg4
I0
sg5
I5
ssV65rxd7
p5904
(dp5905
g3
I0
sg4
I0
sg5
I1
ssV65p7f5
p5906
(dp5907
g3
I0
sg4
I0
sg5
I0
ssV65vmra
p5908
(dp5909
g3
I0
sg4
I0
sg5
I2
ssV65ijaw
p5910
(dp5911
g3
I0
sg4
I0
sg5
I2
ssV65or8c
p5912
(dp5913
g3
I0
sg4
I0
sg5
I1
ssV65owzv
p5914
(dp5915
g3
I0
sg4
I0
sg5
I24
ssV65fn94
p5916
(dp5917
g3
I0
sg4
I0
sg5
I0
ssV63tksn
p5918
(dp5919
g3
I7
sg4
I0
sg5
I887
ssV65w3mz
p5920
(dp5921
g3
I75
sg4
I0
sg5
I4001
ssV63dy1r
p5922
(dp5923
g3
I16
sg4
I0
sg5
I618
ssV65j64w
p5924
(dp5925
g3
I0
sg4
I0
sg5
I1
ssV665gt9
p5926
(dp5927
g3
I0
sg4
I0
sg5
I1
ssV65j5fl
p5928
(dp5929
g3
I2
sg4
I0
sg5
I4
ssV62zx1t
p5930
(dp5931
g3
I102
sg4
I0
sg5
I3470
ssV65fs4j
p5932
(dp5933
g3
I0
sg4
I0
sg5
I6
ssV65qvj9
p5934
(dp5935
g3
I0
sg4
I0
sg5
I1
ssV65qn0q
p5936
(dp5937
g3
I2
sg4
I0
sg5
I2
ssV62v9wb
p5938
(dp5939
g3
I0
sg4
I0
sg5
I7
ssV65inkp
p5940
(dp5941
g3
I1
sg4
I0
sg5
I0
ssV65h003
p5942
(dp5943
g3
I0
sg4
I0
sg5
I1
ssVxkbee
p5944
(dp5945
g3
I0
sg4
I0
sg5
I0
ssV62gx7a
p5946
(dp5947
g3
I0
sg4
I0
sg5
I1
ssV6517in
p5948
(dp5949
g3
I0
sg4
I0
sg5
I1
ssV633ktz
p5950
(dp5951
g3
I0
sg4
I0
sg5
I10
ssV1gtcsr
p5952
(dp5953
g3
I0
sg4
I0
sg5
I4
ssV65i73k
p5954
(dp5955
g3
I3
sg4
I0
sg5
I4
ssV64i77q
p5956
(dp5957
g3
I0
sg4
I0
sg5
I1
ssV65hq2o
p5958
(dp5959
g3
I0
sg4
I0
sg5
I1
ssV660ds0
p5960
(dp5961
g3
I0
sg4
I0
sg5
I9
ssV65rxr5
p5962
(dp5963
g3
I8
sg4
I0
sg5
I2
ssV65guqz
p5964
(dp5965
g3
I3
sg4
I0
sg5
I0
ssV65klo4
p5966
(dp5967
g3
I0
sg4
I0
sg5
I3
ssV65wqle
p5968
(dp5969
g3
I4
sg4
I0
sg5
I0
ssV66er2f
p5970
(dp5971
g3
I2
sg4
I0
sg5
I3
ssV1hnbur
p5972
(dp5973
g3
I11
sg4
I0
sg5
I112
ssV63a0w4
p5974
(dp5975
g3
I1
sg4
I0
sg5
I12
ssV65loj4
p5976
(dp5977
g3
I8
sg4
I0
sg5
I274
ssV65wq19
p5978
(dp5979
g3
I2
sg4
I0
sg5
I11
ssV65noyk
p5980
(dp5981
g3
I5
sg4
I0
sg5
I1
ssV65mcbg
p5982
(dp5983
g3
I11
sg4
I0
sg5
I9
ssV6487ag
p5984
(dp5985
g3
I0
sg4
I0
sg5
I10
ssV65wq14
p5986
(dp5987
g3
I1
sg4
I0
sg5
I3
ssV63p7xu
p5988
(dp5989
g3
I4
sg4
I0
sg5
I34
ssV656f6d
p5990
(dp5991
g3
I2
sg4
I0
sg5
I10
ssV1czq1s
p5992
(dp5993
g3
I2
sg4
I0
sg5
I63
ssV62w05q
p5994
(dp5995
g3
I0
sg4
I0
sg5
I0
ssV669y14
p5996
(dp5997
g3
I4
sg4
I0
sg5
I35
ssV65r5d6
p5998
(dp5999
g3
I0
sg4
I0
sg5
I8
ssV65743w
p6000
(dp6001
g3
I7
sg4
I0
sg5
I6
ssV65lp4v
p6002
(dp6003
g3
I2
sg4
I0
sg5
I39
ssV65p38b
p6004
(dp6005
g3
I1
sg4
I0
sg5
I0
ssV65q25j
p6006
(dp6007
g3
I0
sg4
I0
sg5
I50
ssV65kvx0
p6008
(dp6009
g3
I0
sg4
I0
sg5
I0
ssV6650xx
p6010
(dp6011
g3
I2
sg4
I0
sg5
I0
ssV65gqye
p6012
(dp6013
g3
I5
sg4
I0
sg5
I11
ssV65toxx
p6014
(dp6015
g3
I3
sg4
I0
sg5
I3
ssV64h0dp
p6016
(dp6017
g3
I8
sg4
I0
sg5
I7
ssV65m180
p6018
(dp6019
g3
I11
sg4
I0
sg5
I210
ssV65lojf
p6020
(dp6021
g3
I0
sg4
I0
sg5
I5
ssV65gadn
p6022
(dp6023
g3
I0
sg4
I0
sg5
I0
ssV1i295t
p6024
(dp6025
g3
I7
sg4
I0
sg5
I36
ssV65pdmu
p6026
(dp6027
g3
I2
sg4
I0
sg5
I3
ssV65kxyw
p6028
(dp6029
g3
I2
sg4
I0
sg5
I38
ssV66yhys
p6030
(dp6031
g3
I2
sg4
I0
sg5
I7
ssV65lzoi
p6032
(dp6033
g3
I0
sg4
I0
sg5
I31
ssV65icci
p6034
(dp6035
g3
I2
sg4
I0
sg5
I1
ssV65o6k7
p6036
(dp6037
g3
I43
sg4
I0
sg5
I3754
ssV2vfteq
p6038
(dp6039
g3
I9
sg4
I0
sg5
I439
ssV1ilte5
p6040
(dp6041
g3
I1
sg4
I0
sg5
I0
ssV64h8fb
p6042
(dp6043
g3
I3
sg4
I0
sg5
I7
ssV65m9wa
p6044
(dp6045
g3
I1
sg4
I0
sg5
I1
ssV65k11z
p6046
(dp6047
g3
I5
sg4
I0
sg5
I20
ssV65k5tc
p6048
(dp6049
g3
I4
sg4
I0
sg5
I40
ssV65t6pr
p6050
(dp6051
g3
I6
sg4
I0
sg5
I66
ssV65g22z
p6052
(dp6053
g3
I3
sg4
I0
sg5
I19
ssV65ixdp
p6054
(dp6055
g3
I2
sg4
I0
sg5
I0
ssV65w4tw
p6056
(dp6057
g3
I0
sg4
I0
sg5
I6
ssV65sb9g
p6058
(dp6059
g3
I2
sg4
I0
sg5
I1
ssV66dy9t
p6060
(dp6061
g3
I4
sg4
I0
sg5
I8
ssV65o1xv
p6062
(dp6063
g3
I7
sg4
I0
sg5
I18
ssV65pmik
p6064
(dp6065
g3
I0
sg4
I0
sg5
I1
ssV65q9bp
p6066
(dp6067
g3
I0
sg4
I0
sg5
I5
ssV65mqrn
p6068
(dp6069
g3
I1
sg4
I0
sg5
I23
ssV65mxa1
p6070
(dp6071
g3
I1
sg4
I0
sg5
I0
ssV65esut
p6072
(dp6073
g3
I0
sg4
I0
sg5
I0
ssV65ijo0
p6074
(dp6075
g3
I1
sg4
I0
sg5
I0
ssV661fgs
p6076
(dp6077
g3
I4
sg4
I0
sg5
I61
ssV65w94w
p6078
(dp6079
g3
I2
sg4
I0
sg5
I0
ssV63rei8
p6080
(dp6081
g3
I0
sg4
I0
sg5
I21
ssV64gtp9
p6082
(dp6083
g3
I0
sg4
I0
sg5
I3
ssV65idpl
p6084
(dp6085
g3
I2
sg4
I0
sg5
I10
ssV65f517
p6086
(dp6087
g3
I1
sg4
I0
sg5
I2
ssV65vw32
p6088
(dp6089
g3
I0
sg4
I0
sg5
I0
ssV65hyfw
p6090
(dp6091
g3
I4
sg4
I0
sg5
I3
ssV2v62ar
p6092
(dp6093
g3
I1
sg4
I0
sg5
I15
ssV638lcd
p6094
(dp6095
g3
I1
sg4
I0
sg5
I15
ssV2vjhsh
p6096
(dp6097
g3
I3
sg4
I0
sg5
I3
ssV65pfmf
p6098
(dp6099
g3
I1
sg4
I0
sg5
I0
ssV65qcag
p6100
(dp6101
g3
I2
sg4
I0
sg5
I0
ssV65iaop
p6102
(dp6103
g3
I6
sg4
I0
sg5
I16
ssV63anra
p6104
(dp6105
g3
I4
sg4
I0
sg5
I4
ssV65k6np
p6106
(dp6107
g3
I0
sg4
I0
sg5
I3
ssV65sh26
p6108
(dp6109
g3
I0
sg4
I0
sg5
I0
ssV1gnuon
p6110
(dp6111
g3
I8
sg4
I0
sg5
I52
ssV63mold
p6112
(dp6113
g3
I2
sg4
I0
sg5
I22
ssV65vmgr
p6114
(dp6115
g3
I0
sg4
I0
sg5
I2
ssV65opta
p6116
(dp6117
g3
I0
sg4
I0
sg5
I0
ssV1idg16
p6118
(dp6119
g3
I0
sg4
I0
sg5
I1
ssV65tdd0
p6120
(dp6121
g3
I1
sg4
I0
sg5
I0
ssV65o11r
p6122
(dp6123
g3
I4
sg4
I0
sg5
I9
ssV65o9n5
p6124
(dp6125
g3
I5
sg4
I0
sg5
I0
ssV65l4bm
p6126
(dp6127
g3
I4
sg4
I0
sg5
I0
ssV65lhj8
p6128
(dp6129
g3
I1
sg4
I0
sg5
I6
ssV64xysm
p6130
(dp6131
g3
I0
sg4
I0
sg5
I13
ssV65h73e
p6132
(dp6133
g3
I1
sg4
I0
sg5
I0
ssV66lbj7
p6134
(dp6135
g3
I0
sg4
I0
sg5
I13
ssV65s1to
p6136
(dp6137
g3
I1
sg4
I0
sg5
I1
ssV65nn3s
p6138
(dp6139
g3
I1
sg4
I0
sg5
I1
ssV65kuv7
p6140
(dp6141
g3
I0
sg4
I0
sg5
I4
ssV65ovfn
p6142
(dp6143
g3
I1
sg4
I0
sg5
I3
ssV642kv0
p6144
(dp6145
g3
I0
sg4
I0
sg5
I12
ssV66ht1h
p6146
(dp6147
g3
I0
sg4
I0
sg5
I12
ssV65s9ve
p6148
(dp6149
g3
I1
sg4
I0
sg5
I0
ssV65qnmo
p6150
(dp6151
g3
I1
sg4
I0
sg5
I5
ssV1icqdi
p6152
(dp6153
g3
I19
sg4
I0
sg5
I255
ssV1ike15
p6154
(dp6155
g3
I0
sg4
I0
sg5
I18
ssV66hbtn
p6156
(dp6157
g3
I0
sg4
I0
sg5
I5
ssV657i9i
p6158
(dp6159
g3
I1
sg4
I0
sg5
I10
ssV65rnz2
p6160
(dp6161
g3
I1
sg4
I0
sg5
I3
ssV1h79jo
p6162
(dp6163
g3
I3
sg4
I0
sg5
I8
ssV65lcfe
p6164
(dp6165
g3
I3
sg4
I0
sg5
I24
ssV65env5
p6166
(dp6167
g3
I8
sg4
I0
sg5
I15
ssV65jhoh
p6168
(dp6169
g3
I0
sg4
I0
sg5
I3
ssV65uiwo
p6170
(dp6171
g3
I4
sg4
I0
sg5
I17
ssV1id8v8
p6172
(dp6173
g3
I13
sg4
I0
sg5
I82
ssV6626xv
p6174
(dp6175
g3
I1
sg4
I0
sg5
I32
ssV65tkbm
p6176
(dp6177
g3
I1
sg4
I0
sg5
I6
ssV65ob8t
p6178
(dp6179
g3
I1
sg4
I0
sg5
I7
ssV65j5h1
p6180
(dp6181
g3
I1
sg4
I0
sg5
I3
ssV65ny4k
p6182
(dp6183
g3
I1
sg4
I0
sg5
I2
ssV1icjjs
p6184
(dp6185
g3
I2
sg4
I0
sg5
I0
ssV65ci8t
p6186
(dp6187
g3
I10
sg4
I0
sg5
I22
ssV672wci
p6188
(dp6189
g3
I0
sg4
I0
sg5
I17
ssV63n07k
p6190
(dp6191
g3
I1
sg4
I0
sg5
I9
ssV66biev
p6192
(dp6193
g3
I1
sg4
I0
sg5
I2
ssV66pni5
p6194
(dp6195
g3
I0
sg4
I0
sg5
I1
ssV65juai
p6196
(dp6197
g3
I0
sg4
I0
sg5
I0
ssV65mfe0
p6198
(dp6199
g3
I4
sg4
I0
sg5
I5
ssV66v9e8
p6200
(dp6201
g3
I1
sg4
I0
sg5
I4
ssV66ng5l
p6202
(dp6203
g3
I0
sg4
I0
sg5
I16
ssV65jetr
p6204
(dp6205
g3
I0
sg4
I0
sg5
I0
ssV62mckr
p6206
(dp6207
g3
I3
sg4
I0
sg5
I62
ssV657yy4
p6208
(dp6209
g3
I7
sg4
I0
sg5
I24
ssV66fj9o
p6210
(dp6211
g3
I1
sg4
I0
sg5
I6
ssV65in0t
p6212
(dp6213
g3
I891
sg4
I0
sg5
I36528
ssV62powl
p6214
(dp6215
g3
I1
sg4
I0
sg5
I3
ssV65q628
p6216
(dp6217
g3
I10
sg4
I0
sg5
I43
ssV65cre7
p6218
(dp6219
g3
I0
sg4
I0
sg5
I0
ssV66fl17
p6220
(dp6221
g3
I2
sg4
I0
sg5
I0
ssV65p80h
p6222
(dp6223
g3
I0
sg4
I0
sg5
I1
ssV65ftf7
p6224
(dp6225
g3
I1
sg4
I0
sg5
I7
ssV65gm99
p6226
(dp6227
g3
I7
sg4
I0
sg5
I4
ssV65jw3w
p6228
(dp6229
g3
I1
sg4
I0
sg5
I5
ssV1hrc98
p6230
(dp6231
g3
I0
sg4
I0
sg5
I1
ssV2vbgiu
p6232
(dp6233
g3
I0
sg4
I0
sg5
I5
ssV65jwf0
p6234
(dp6235
g3
I0
sg4
I0
sg5
I2
ssVxk8w4
p6236
(dp6237
g3
I26
sg4
I0
sg5
I139
ssV64r2un
p6238
(dp6239
g3
I10
sg4
I0
sg5
I38
ssV6572yg
p6240
(dp6241
g3
I2
sg4
I0
sg5
I5
ssV668ey9
p6242
(dp6243
g3
I1
sg4
I0
sg5
I1
ssV64t9uk
p6244
(dp6245
g3
I0
sg4
I0
sg5
I6
ssV63gbs6
p6246
(dp6247
g3
I0
sg4
I0
sg5
I8
ssV65yniw
p6248
(dp6249
g3
I1
sg4
I0
sg5
I1
ssV65tk9s
p6250
(dp6251
g3
I2
sg4
I0
sg5
I1
ssV63bldj
p6252
(dp6253
g3
I2
sg4
I0
sg5
I4
ssV65sz7q
p6254
(dp6255
g3
I0
sg4
I0
sg5
I5
ssV63bxvz
p6256
(dp6257
g3
I1
sg4
I0
sg5
I0
ssV63e2k9
p6258
(dp6259
g3
I5
sg4
I0
sg5
I7
ssV643ozc
p6260
(dp6261
g3
I4
sg4
I0
sg5
I20
ssV2v2epe
p6262
(dp6263
g3
I1
sg4
I0
sg5
I0
ssV664vn8
p6264
(dp6265
g3
I0
sg4
I0
sg5
I79
ssV65mstm
p6266
(dp6267
g3
I0
sg4
I0
sg5
I2
ssV64gltq
p6268
(dp6269
g3
I3
sg4
I0
sg5
I6
ssV65pee1
p6270
(dp6271
g3
I1
sg4
I0
sg5
I0
ssV65kp41
p6272
(dp6273
g3
I0
sg4
I0
sg5
I1
ssV2vi0dq
p6274
(dp6275
g3
I4
sg4
I0
sg5
I102
ssV642h1l
p6276
(dp6277
g3
I8
sg4
I0
sg5
I210
ssV6331uh
p6278
(dp6279
g3
I5
sg4
I0
sg5
I32
ssV65hdcy
p6280
(dp6281
g3
I0
sg4
I0
sg5
I4
ssV65wrp6
p6282
(dp6283
g3
I1
sg4
I0
sg5
I0
ssV65ma97
p6284
(dp6285
g3
I2
sg4
I0
sg5
I1
ssV65mwdt
p6286
(dp6287
g3
I1
sg4
I0
sg5
I0
ssV6527oc
p6288
(dp6289
g3
I0
sg4
I0
sg5
I7
ssV65p71m
p6290
(dp6291
g3
I0
sg4
I0
sg5
I2
ssV62fo3l
p6292
(dp6293
g3
I6
sg4
I0
sg5
I115
ssV65ghw8
p6294
(dp6295
g3
I0
sg4
I0
sg5
I7
ssV64lwmp
p6296
(dp6297
g3
I1
sg4
I0
sg5
I64
ssV65p800
p6298
(dp6299
g3
I1
sg4
I0
sg5
I10
ssV63h5da
p6300
(dp6301
g3
I0
sg4
I0
sg5
I26
ssV1bqx5v
p6302
(dp6303
g3
I4
sg4
I0
sg5
I1
ssV62p72j
p6304
(dp6305
g3
I1
sg4
I0
sg5
I4
ssV65qukr
p6306
(dp6307
g3
I3
sg4
I0
sg5
I0
ssV65r8q3
p6308
(dp6309
g3
I0
sg4
I0
sg5
I1
ssV65savr
p6310
(dp6311
g3
I2
sg4
I0
sg5
I6
ssV65wca7
p6312
(dp6313
g3
I0
sg4
I0
sg5
I1
ssV1gxuil
p6314
(dp6315
g3
I0
sg4
I0
sg5
I32
ssV65wdub
p6316
(dp6317
g3
I0
sg4
I0
sg5
I1
ssV65hm63
p6318
(dp6319
g3
I0
sg4
I0
sg5
I2
ssV65hx6u
p6320
(dp6321
g3
I1
sg4
I0
sg5
I1
ssV664xny
p6322
(dp6323
g3
I0
sg4
I0
sg5
I3
ssV671vb3
p6324
(dp6325
g3
I0
sg4
I0
sg5
I3
ssV636paw
p6326
(dp6327
g3
I60
sg4
I0
sg5
I560
ssV65m8pv
p6328
(dp6329
g3
I0
sg4
I0
sg5
I5
ssV65jv4h
p6330
(dp6331
g3
I0
sg4
I0
sg5
I4
ssV65pf7p
p6332
(dp6333
g3
I0
sg4
I0
sg5
I0
ssV63qjp9
p6334
(dp6335
g3
I6
sg4
I0
sg5
I50
ssV63nm3u
p6336
(dp6337
g3
I0
sg4
I0
sg5
I6
ssV6570qj
p6338
(dp6339
g3
I0
sg4
I0
sg5
I29
ssV66a1zo
p6340
(dp6341
g3
I0
sg4
I0
sg5
I0
ssV668h32
p6342
(dp6343
g3
I56
sg4
I0
sg5
I1145
ssV65psqr
p6344
(dp6345
g3
I3
sg4
I0
sg5
I3
ssV63mqtu
p6346
(dp6347
g3
I6
sg4
I0
sg5
I22
ssV65pikm
p6348
(dp6349
g3
I1
sg4
I0
sg5
I0
ssV666eqt
p6350
(dp6351
g3
I0
sg4
I0
sg5
I1
ssV63ppo9
p6352
(dp6353
g3
I0
sg4
I0
sg5
I1
ssV64pxaq
p6354
(dp6355
g3
I1
sg4
I0
sg5
I0
ssV65qra0
p6356
(dp6357
g3
I2
sg4
I0
sg5
I2
ssV65nd2k
p6358
(dp6359
g3
I2
sg4
I0
sg5
I1
ssV1icwfx
p6360
(dp6361
g3
I8
sg4
I0
sg5
I70
ssV65jit3
p6362
(dp6363
g3
I1
sg4
I0
sg5
I1
ssV66ni2u
p6364
(dp6365
g3
I0
sg4
I0
sg5
I9
ssV646xvw
p6366
(dp6367
g3
I0
sg4
I0
sg5
I14
ssV65r8qt
p6368
(dp6369
g3
I5
sg4
I0
sg5
I2
ssV65nbgh
p6370
(dp6371
g3
I3
sg4
I0
sg5
I20
ssV637bt9
p6372
(dp6373
g3
I20
sg4
I0
sg5
I402
ssV65pj79
p6374
(dp6375
g3
I0
sg4
I0
sg5
I2
ssV65fwlm
p6376
(dp6377
g3
I2
sg4
I0
sg5
I3
ssV62doxr
p6378
(dp6379
g3
I0
sg4
I0
sg5
I5
ssV63aldn
p6380
(dp6381
g3
I5
sg4
I0
sg5
I8
ssV65v9pe
p6382
(dp6383
g3
I1
sg4
I0
sg5
I0
ssV631eg9
p6384
(dp6385
g3
I2
sg4
I0
sg5
I35
ssV65vca2
p6386
(dp6387
g3
I23
sg4
I0
sg5
I413
ssV65pc88
p6388
(dp6389
g3
I0
sg4
I0
sg5
I2
ssV66gp3m
p6390
(dp6391
g3
I23
sg4
I0
sg5
I2522
ssV65r8qh
p6392
(dp6393
g3
I2
sg4
I0
sg5
I3
ssV65ofk2
p6394
(dp6395
g3
I7
sg4
I0
sg5
I49
ssV645mlr
p6396
(dp6397
g3
I0
sg4
I0
sg5
I0
ssV65sigq
p6398
(dp6399
g3
I0
sg4
I0
sg5
I5
ssV65jt2m
p6400
(dp6401
g3
I1
sg4
I0
sg5
I1
ssV65naad
p6402
(dp6403
g3
I0
sg4
I0
sg5
I3
ssV64qset
p6404
(dp6405
g3
I0
sg4
I0
sg5
I1
ssV2viegu
p6406
(dp6407
g3
I0
sg4
I0
sg5
I1
ssV62gvh0
p6408
(dp6409
g3
I1
sg4
I0
sg5
I40
ssV64lssh
p6410
(dp6411
g3
I5
sg4
I0
sg5
I19
ssVxknn3
p6412
(dp6413
g3
I2
sg4
I0
sg5
I17
ssV65gds1
p6414
(dp6415
g3
I2
sg4
I0
sg5
I17
ssV65wmo6
p6416
(dp6417
g3
I6
sg4
I0
sg5
I0
ssV65gds2
p6418
(dp6419
g3
I4
sg4
I0
sg5
I0
ssV66y9ci
p6420
(dp6421
g3
I2
sg4
I0
sg5
I36
ssV63uv69
p6422
(dp6423
g3
I0
sg4
I0
sg5
I3
ssV65hklm
p6424
(dp6425
g3
I5
sg4
I0
sg5
I0
ssV65ey8j
p6426
(dp6427
g3
I2
sg4
I0
sg5
I0
ssV669fl5
p6428
(dp6429
g3
I0
sg4
I0
sg5
I34
ssV6365l7
p6430
(dp6431
g3
I6
sg4
I0
sg5
I100
ssV1hcbtf
p6432
(dp6433
g3
I4
sg4
I0
sg5
I48
ssV65quee
p6434
(dp6435
g3
I0
sg4
I0
sg5
I0
ssV65g4by
p6436
(dp6437
g3
I1
sg4
I0
sg5
I1
ssVxjpp7
p6438
(dp6439
g3
I24
sg4
I0
sg5
I126
ssV65tt9d
p6440
(dp6441
g3
I0
sg4
I0
sg5
I0
ssV2vf98e
p6442
(dp6443
g3
I0
sg4
I0
sg5
I2
ssV65txyg
p6444
(dp6445
g3
I0
sg4
I0
sg5
I1
ssV65nlfn
p6446
(dp6447
g3
I0
sg4
I0
sg5
I1
ssV65k85c
p6448
(dp6449
g3
I2
sg4
I0
sg5
I18
ssV65g1dk
p6450
(dp6451
g3
I1
sg4
I0
sg5
I2
ssV65oyox
p6452
(dp6453
g3
I6
sg4
I0
sg5
I11
ssV65sbd9
p6454
(dp6455
g3
I1
sg4
I0
sg5
I1
ssV66g1ri
p6456
(dp6457
g3
I26
sg4
I0
sg5
I641
ssV65lv7n
p6458
(dp6459
g3
I0
sg4
I0
sg5
I1
ssV65s5fk
p6460
(dp6461
g3
I2
sg4
I0
sg5
I77
ssV65sep3
p6462
(dp6463
g3
I0
sg4
I0
sg5
I2
ssV65layy
p6464
(dp6465
g3
I1
sg4
I0
sg5
I0
ssV65ps8l
p6466
(dp6467
g3
I0
sg4
I0
sg5
I4
ssV64yy3g
p6468
(dp6469
g3
I1
sg4
I0
sg5
I12
ssV65ooo6
p6470
(dp6471
g3
I16
sg4
I0
sg5
I53
ssV65loke
p6472
(dp6473
g3
I0
sg4
I0
sg5
I0
ssV65ufyp
p6474
(dp6475
g3
I0
sg4
I0
sg5
I0
ssV2v6rbz
p6476
(dp6477
g3
I0
sg4
I0
sg5
I10
ssV639tm8
p6478
(dp6479
g3
I0
sg4
I0
sg5
I1
ssV65rt0c
p6480
(dp6481
g3
I2
sg4
I0
sg5
I3
ssV1h82yo
p6482
(dp6483
g3
I5
sg4
I0
sg5
I274
ssV64ta3y
p6484
(dp6485
g3
I2
sg4
I0
sg5
I19
ssV65tdce
p6486
(dp6487
g3
I0
sg4
I0
sg5
I1
ssV65tdcg
p6488
(dp6489
g3
I0
sg4
I0
sg5
I1
ssV65isny
p6490
(dp6491
g3
I43
sg4
I0
sg5
I1164
ssV1ew5nn
p6492
(dp6493
g3
I2
sg4
I0
sg5
I40
ssV65o0ub
p6494
(dp6495
g3
I1
sg4
I0
sg5
I21
ssV66291e
p6496
(dp6497
g3
I49
sg4
I0
sg5
I2797
ssV6301r4
p6498
(dp6499
g3
I0
sg4
I0
sg5
I4
ssV65v0c3
p6500
(dp6501
g3
I0
sg4
I0
sg5
I1
ssV65k29u
p6502
(dp6503
g3
I4
sg4
I0
sg5
I11
ssV6615p4
p6504
(dp6505
g3
I0
sg4
I0
sg5
I0
ssV65oiyv
p6506
(dp6507
g3
I21
sg4
I0
sg5
I622
ssV65w591
p6508
(dp6509
g3
I0
sg4
I0
sg5
I0
ssV65vajw
p6510
(dp6511
g3
I0
sg4
I0
sg5
I1
ssV65gc5z
p6512
(dp6513
g3
I5
sg4
I0
sg5
I25
ssV65p06d
p6514
(dp6515
g3
I2
sg4
I0
sg5
I3
ssV65isn2
p6516
(dp6517
g3
I4
sg4
I0
sg5
I0
ssV62s08h
p6518
(dp6519
g3
I4
sg4
I0
sg5
I92
ssV65gsnn
p6520
(dp6521
g3
I1
sg4
I0
sg5
I12
ssV65pk8v
p6522
(dp6523
g3
I5
sg4
I0
sg5
I7
ssV646t08
p6524
(dp6525
g3
I0
sg4
I0
sg5
I3
ssV65enm3
p6526
(dp6527
g3
I0
sg4
I0
sg5
I0
ssV65nkbs
p6528
(dp6529
g3
I0
sg4
I0
sg5
I2
ssV66sc2l
p6530
(dp6531
g3
I2
sg4
I0
sg5
I25
ssV64mw65
p6532
(dp6533
g3
I0
sg4
I0
sg5
I1
ssV65yezd
p6534
(dp6535
g3
I0
sg4
I0
sg5
I3
ssV65pwym
p6536
(dp6537
g3
I0
sg4
I0
sg5
I4
ssV65wkho
p6538
(dp6539
g3
I0
sg4
I0
sg5
I6
ssV65omon
p6540
(dp6541
g3
I7
sg4
I0
sg5
I22
ssV65oz9r
p6542
(dp6543
g3
I0
sg4
I0
sg5
I5
ssV65oeax
p6544
(dp6545
g3
I1
sg4
I0
sg5
I0
ssV65haz1
p6546
(dp6547
g3
I1
sg4
I0
sg5
I10
ssV665aic
p6548
(dp6549
g3
I0
sg4
I0
sg5
I24
ssV63su46
p6550
(dp6551
g3
I2
sg4
I0
sg5
I1
ssV6513f2
p6552
(dp6553
g3
I1
sg4
I0
sg5
I0
ssV65hcpe
p6554
(dp6555
g3
I0
sg4
I0
sg5
I8
ssV66r5r2
p6556
(dp6557
g3
I1
sg4
I0
sg5
I8
ssV65i4da
p6558
(dp6559
g3
I1
sg4
I0
sg5
I1
ssV65rgvj
p6560
(dp6561
g3
I0
sg4
I0
sg5
I5
ssV66gvpv
p6562
(dp6563
g3
I0
sg4
I0
sg5
I8
ssV65k3em
p6564
(dp6565
g3
I4
sg4
I0
sg5
I12
ssV1icrqh
p6566
(dp6567
g3
I0
sg4
I0
sg5
I26
ssV65sf05
p6568
(dp6569
g3
I0
sg4
I0
sg5
I2
ssV65x8k8
p6570
(dp6571
g3
I2
sg4
I0
sg5
I7
ssV62oq3i
p6572
(dp6573
g3
I1
sg4
I0
sg5
I5
ssV63xy6r
p6574
(dp6575
g3
I33
sg4
I0
sg5
I382
ssV65wi63
p6576
(dp6577
g3
I1
sg4
I0
sg5
I10
ssV65jlnw
p6578
(dp6579
g3
I0
sg4
I0
sg5
I1
ssV65mkuz
p6580
(dp6581
g3
I0
sg4
I0
sg5
I1
ssV66dflm
p6582
(dp6583
g3
I4
sg4
I0
sg5
I12
ssVxk93v
p6584
(dp6585
g3
I28
sg4
I0
sg5
I333
ssV65u44l
p6586
(dp6587
g3
I5
sg4
I0
sg5
I0
ssV64w5vz
p6588
(dp6589
g3
I0
sg4
I0
sg5
I1
ssV65khzw
p6590
(dp6591
g3
I20
sg4
I0
sg5
I939
ssV62d656
p6592
(dp6593
g3
I0
sg4
I0
sg5
I10
ssV66jikh
p6594
(dp6595
g3
I1
sg4
I0
sg5
I1
ssV65ixkq
p6596
(dp6597
g3
I0
sg4
I0
sg5
I3
ssV65wo6z
p6598
(dp6599
g3
I0
sg4
I0
sg5
I0
ssV65iong
p6600
(dp6601
g3
I65
sg4
I0
sg5
I2269
ssV63vq3p
p6602
(dp6603
g3
I3
sg4
I0
sg5
I14
ssV640k21
p6604
(dp6605
g3
I0
sg4
I0
sg5
I2
ssV2vc1f1
p6606
(dp6607
g3
I0
sg4
I0
sg5
I8
ssV65wp35
p6608
(dp6609
g3
I0
sg4
I0
sg5
I1
ssV66l3ix
p6610
(dp6611
g3
I15
sg4
I0
sg5
I73
ssV65ildj
p6612
(dp6613
g3
I0
sg4
I0
sg5
I0
ssV64uig6
p6614
(dp6615
g3
I1
sg4
I0
sg5
I1
ssV2vhvvf
p6616
(dp6617
g3
I0
sg4
I0
sg5
I5
ssV65t1f8
p6618
(dp6619
g3
I0
sg4
I0
sg5
I0
ssV63pa7h
p6620
(dp6621
g3
I0
sg4
I0
sg5
I10
ssV65fczo
p6622
(dp6623
g3
I2
sg4
I0
sg5
I16
ssV65amxp
p6624
(dp6625
g3
I0
sg4
I0
sg5
I8
ssV65h8rg
p6626
(dp6627
g3
I1
sg4
I0
sg5
I2
ssV65pxyi
p6628
(dp6629
g3
I0
sg4
I0
sg5
I3
ssV65h9uf
p6630
(dp6631
g3
I0
sg4
I0
sg5
I0
ssV2vbjfo
p6632
(dp6633
g3
I0
sg4
I0
sg5
I3
ssV632zxo
p6634
(dp6635
g3
I2
sg4
I0
sg5
I4
ssV64rfke
p6636
(dp6637
g3
I39
sg4
I0
sg5
I695
ssV65shai
p6638
(dp6639
g3
I0
sg4
I0
sg5
I8
ssV65zt2u
p6640
(dp6641
g3
I4
sg4
I0
sg5
I19
ssV65jg0y
p6642
(dp6643
g3
I1
sg4
I0
sg5
I3
ssV1i4zcl
p6644
(dp6645
g3
I0
sg4
I0
sg5
I2
ssV65jln8
p6646
(dp6647
g3
I44
sg4
I0
sg5
I1420
ssV65fs5m
p6648
(dp6649
g3
I5
sg4
I0
sg5
I2
ssV66b83b
p6650
(dp6651
g3
I0
sg4
I0
sg5
I2
ssV66ucxk
p6652
(dp6653
g3
I2
sg4
I0
sg5
I23
ssV6327vf
p6654
(dp6655
g3
I2
sg4
I0
sg5
I7
ssV65o4ug
p6656
(dp6657
g3
I0
sg4
I0
sg5
I1
ssV65qbp9
p6658
(dp6659
g3
I8
sg4
I0
sg5
I118
ssV2veo4l
p6660
(dp6661
g3
I0
sg4
I0
sg5
I3
ssV1huph7
p6662
(dp6663
g3
I0
sg4
I0
sg5
I12
ssV646iy4
p6664
(dp6665
g3
I4
sg4
I0
sg5
I60
ssV1if3s9
p6666
(dp6667
g3
I0
sg4
I0
sg5
I1
ssV65t4vh
p6668
(dp6669
g3
I259
sg4
I0
sg5
I13656
ssV66glzs
p6670
(dp6671
g3
I3
sg4
I0
sg5
I32
ssV65r3w7
p6672
(dp6673
g3
I0
sg4
I0
sg5
I6
ssV65lqkv
p6674
(dp6675
g3
I0
sg4
I0
sg5
I1
ssV62pf7y
p6676
(dp6677
g3
I2
sg4
I0
sg5
I27
ssV66j7t6
p6678
(dp6679
g3
I2
sg4
I0
sg5
I1
ssV65oikz
p6680
(dp6681
g3
I0
sg4
I0
sg5
I1
ssV65kkjj
p6682
(dp6683
g3
I1
sg4
I0
sg5
I0
ssV1iep8s
p6684
(dp6685
g3
I0
sg4
I0
sg5
I13
ssV65tik2
p6686
(dp6687
g3
I0
sg4
I0
sg5
I5
ssV65mh7l
p6688
(dp6689
g3
I0
sg4
I0
sg5
I1
ssV65q3p1
p6690
(dp6691
g3
I0
sg4
I0
sg5
I1
ssV65mr93
p6692
(dp6693
g3
I1
sg4
I0
sg5
I1
ssV64ew1b
p6694
(dp6695
g3
I0
sg4
I0
sg5
I8
ssV65vbb7
p6696
(dp6697
g3
I1
sg4
I0
sg5
I0
ssV65lhm0
p6698
(dp6699
g3
I2
sg4
I0
sg5
I0
ssV65r3e8
p6700
(dp6701
g3
I5
sg4
I0
sg5
I14
ssV66mowc
p6702
(dp6703
g3
I0
sg4
I0
sg5
I5
ssV64r4cf
p6704
(dp6705
g3
I0
sg4
I0
sg5
I0
ssV658mg3
p6706
(dp6707
g3
I0
sg4
I0
sg5
I9
ssV65r8aj
p6708
(dp6709
g3
I2
sg4
I0
sg5
I1
ssV65yv1p
p6710
(dp6711
g3
I0
sg4
I0
sg5
I10
ssV65rmcc
p6712
(dp6713
g3
I7
sg4
I0
sg5
I74
ssV65lnq4
p6714
(dp6715
g3
I2
sg4
I0
sg5
I43
ssV65rnou
p6716
(dp6717
g3
I1
sg4
I0
sg5
I2
ssV65lu8m
p6718
(dp6719
g3
I1
sg4
I0
sg5
I31
ssV62t427
p6720
(dp6721
g3
I0
sg4
I0
sg5
I0
ssV65rr6c
p6722
(dp6723
g3
I2
sg4
I0
sg5
I4
ssV636khl
p6724
(dp6725
g3
I1
sg4
I0
sg5
I10
ssV65oh3r
p6726
(dp6727
g3
I96
sg4
I0
sg5
I3702
ssV63ks4h
p6728
(dp6729
g3
I0
sg4
I0
sg5
I0
ssV65mthe
p6730
(dp6731
g3
I0
sg4
I0
sg5
I0
ssV667ddk
p6732
(dp6733
g3
I0
sg4
I0
sg5
I11
ssV649g0b
p6734
(dp6735
g3
I0
sg4
I0
sg5
I0
ssV65u4su
p6736
(dp6737
g3
I1
sg4
I0
sg5
I3
ssV6410a9
p6738
(dp6739
g3
I0
sg4
I0
sg5
I1
ssV65np8q
p6740
(dp6741
g3
I3
sg4
I0
sg5
I12
ssV65mwu9
p6742
(dp6743
g3
I1
sg4
I0
sg5
I1
ssV62vwvw
p6744
(dp6745
g3
I0
sg4
I0
sg5
I4
ssV66961e
p6746
(dp6747
g3
I92
sg4
I0
sg5
I14102
ssV1gybg8
p6748
(dp6749
g3
I2
sg4
I0
sg5
I66
ssV64emt1
p6750
(dp6751
g3
I25
sg4
I0
sg5
I1046
ssV665vo8
p6752
(dp6753
g3
I0
sg4
I0
sg5
I13
ssV65vi6s
p6754
(dp6755
g3
I0
sg4
I0
sg5
I0
ssV65zcmk
p6756
(dp6757
g3
I0
sg4
I0
sg5
I6
ssV62favl
p6758
(dp6759
g3
I0
sg4
I0
sg5
I1
ssV65kjtw
p6760
(dp6761
g3
I3
sg4
I0
sg5
I0
ssV65esto
p6762
(dp6763
g3
I10
sg4
I0
sg5
I1
ssV65o7s1
p6764
(dp6765
g3
I0
sg4
I0
sg5
I0
ssV1f54ea
p6766
(dp6767
g3
I2
sg4
I0
sg5
I76
ssV65qcr3
p6768
(dp6769
g3
I5
sg4
I0
sg5
I6
ssV6620ks
p6770
(dp6771
g3
I0
sg4
I0
sg5
I2
ssV65gcj2
p6772
(dp6773
g3
I1
sg4
I0
sg5
I6
ssV64unoq
p6774
(dp6775
g3
I2
sg4
I0
sg5
I22
ssV2vj2ez
p6776
(dp6777
g3
I0
sg4
I0
sg5
I15
ssV65r7wm
p6778
(dp6779
g3
I4
sg4
I0
sg5
I0
ssV66fyyx
p6780
(dp6781
g3
I0
sg4
I0
sg5
I3
ssV65m0mt
p6782
(dp6783
g3
I1
sg4
I0
sg5
I18
ssV65gaxp
p6784
(dp6785
g3
I2
sg4
I0
sg5
I13
ssV62fu2q
p6786
(dp6787
g3
I0
sg4
I0
sg5
I5
ssV65sij4
p6788
(dp6789
g3
I2
sg4
I0
sg5
I0
ssV63qe7h
p6790
(dp6791
g3
I0
sg4
I0
sg5
I4
ssV65jwyu
p6792
(dp6793
g3
I2
sg4
I0
sg5
I2
ssV65j4v8
p6794
(dp6795
g3
I26
sg4
I0
sg5
I533
ssV62m3pw
p6796
(dp6797
g3
I1
sg4
I0
sg5
I7
ssV65muya
p6798
(dp6799
g3
I2
sg4
I0
sg5
I2
ssV2vdse0
p6800
(dp6801
g3
I4
sg4
I0
sg5
I6
ssV65vfzl
p6802
(dp6803
g3
I62
sg4
I0
sg5
I5032
ssV65nty4
p6804
(dp6805
g3
I2
sg4
I0
sg5
I0
ssV66e7et
p6806
(dp6807
g3
I0
sg4
I0
sg5
I1
ssV65wfhl
p6808
(dp6809
g3
I0
sg4
I0
sg5
I0
ssV65i0kf
p6810
(dp6811
g3
I8
sg4
I0
sg5
I24
ssV65emv3
p6812
(dp6813
g3
I0
sg4
I0
sg5
I13
ssV65atib
p6814
(dp6815
g3
I0
sg4
I0
sg5
I31
ssV65oens
p6816
(dp6817
g3
I3
sg4
I0
sg5
I1
ssV63hrbn
p6818
(dp6819
g3
I0
sg4
I0
sg5
I18
ssV2vihpv
p6820
(dp6821
g3
I2
sg4
I0
sg5
I0
ssV65mbpq
p6822
(dp6823
g3
I1
sg4
I0
sg5
I0
ssV65rgyt
p6824
(dp6825
g3
I3
sg4
I0
sg5
I4
ssV65peb3
p6826
(dp6827
g3
I0
sg4
I0
sg5
I1
ssV65sfkd
p6828
(dp6829
g3
I0
sg4
I0
sg5
I1
ssV64yun8
p6830
(dp6831
g3
I0
sg4
I0
sg5
I20
ssV65riwe
p6832
(dp6833
g3
I0
sg4
I0
sg5
I1
ssV660soe
p6834
(dp6835
g3
I1
sg4
I0
sg5
I11
ssV65unhn
p6836
(dp6837
g3
I0
sg4
I0
sg5
I0
ssV65jp93
p6838
(dp6839
g3
I2
sg4
I0
sg5
I0
ssV651kaj
p6840
(dp6841
g3
I0
sg4
I0
sg5
I0
ssV65j40u
p6842
(dp6843
g3
I0
sg4
I0
sg5
I0
ssV65tvum
p6844
(dp6845
g3
I0
sg4
I0
sg5
I18
ssV65qjds
p6846
(dp6847
g3
I0
sg4
I0
sg5
I2
ssV65j2mq
p6848
(dp6849
g3
I0
sg4
I0
sg5
I1
ssV65nrui
p6850
(dp6851
g3
I0
sg4
I0
sg5
I0
ssV62j09b
p6852
(dp6853
g3
I1
sg4
I0
sg5
I5
ssV65ndfs
p6854
(dp6855
g3
I2
sg4
I0
sg5
I12
ssV65p8nx
p6856
(dp6857
g3
I3
sg4
I0
sg5
I27
ssV6305ib
p6858
(dp6859
g3
I0
sg4
I0
sg5
I1
ssV64pry0
p6860
(dp6861
g3
I0
sg4
I0
sg5
I5
ssV65cuaa
p6862
(dp6863
g3
I0
sg4
I0
sg5
I1
ssV2vbovh
p6864
(dp6865
g3
I1
sg4
I0
sg5
I9
ssV66k44p
p6866
(dp6867
g3
I1
sg4
I0
sg5
I29
ssV65sqis
p6868
(dp6869
g3
I2
sg4
I0
sg5
I0
ssV65nulw
p6870
(dp6871
g3
I0
sg4
I0
sg5
I1
ssV65vtzy
p6872
(dp6873
g3
I1
sg4
I0
sg5
I3
ssV65okj5
p6874
(dp6875
g3
I2
sg4
I0
sg5
I34
ssV64qv32
p6876
(dp6877
g3
I3
sg4
I0
sg5
I16
ssV63y83r
p6878
(dp6879
g3
I1
sg4
I0
sg5
I23
ssV1igyms
p6880
(dp6881
g3
I0
sg4
I0
sg5
I1
ssV65khod
p6882
(dp6883
g3
I3
sg4
I0
sg5
I0
ssV65kcu4
p6884
(dp6885
g3
I6
sg4
I0
sg5
I0
ssV6683ml
p6886
(dp6887
g3
I4
sg4
I0
sg5
I12
ssV65s458
p6888
(dp6889
g3
I1
sg4
I0
sg5
I8
ssV66ba3a
p6890
(dp6891
g3
I0
sg4
I0
sg5
I7
ssV65gebe
p6892
(dp6893
g3
I0
sg4
I0
sg5
I2
ssV63imnw
p6894
(dp6895
g3
I0
sg4
I0
sg5
I6
ssV662r90
p6896
(dp6897
g3
I6
sg4
I0
sg5
I19
ssV65ew22
p6898
(dp6899
g3
I0
sg4
I0
sg5
I1
ssV1g3gas
p6900
(dp6901
g3
I1
sg4
I0
sg5
I19
ssV65r27y
p6902
(dp6903
g3
I4
sg4
I0
sg5
I2
ssV650hcc
p6904
(dp6905
g3
I3
sg4
I0
sg5
I94
ssV65hafh
p6906
(dp6907
g3
I0
sg4
I0
sg5
I1
ssV65rr4d
p6908
(dp6909
g3
I0
sg4
I0
sg5
I3
ssV65tusv
p6910
(dp6911
g3
I0
sg4
I0
sg5
I5
ssV65vhba
p6912
(dp6913
g3
I0
sg4
I0
sg5
I0
ssV63pdue
p6914
(dp6915
g3
I0
sg4
I0
sg5
I0
ssV1gnlgk
p6916
(dp6917
g3
I0
sg4
I0
sg5
I21
ssV64u41w
p6918
(dp6919
g3
I0
sg4
I0
sg5
I1
ssV63gn3q
p6920
(dp6921
g3
I0
sg4
I0
sg5
I12
ssV62uqeq
p6922
(dp6923
g3
I0
sg4
I0
sg5
I1
ssV66qy6x
p6924
(dp6925
g3
I1
sg4
I0
sg5
I4
ssV65l5qk
p6926
(dp6927
g3
I4
sg4
I0
sg5
I6
ssV65way8
p6928
(dp6929
g3
I0
sg4
I0
sg5
I0
ssV66040x
p6930
(dp6931
g3
I0
sg4
I0
sg5
I1
ssV65kfkt
p6932
(dp6933
g3
I2
sg4
I0
sg5
I9
ssV65w9hj
p6934
(dp6935
g3
I1
sg4
I0
sg5
I20
ssV65sv1f
p6936
(dp6937
g3
I1
sg4
I0
sg5
I0
ssV65p0j8
p6938
(dp6939
g3
I4
sg4
I0
sg5
I16
ssV63o53x
p6940
(dp6941
g3
I0
sg4
I0
sg5
I0
ssV67186p
p6942
(dp6943
g3
I1
sg4
I0
sg5
I1
ssV660ju5
p6944
(dp6945
g3
I0
sg4
I0
sg5
I3
ssV65r645
p6946
(dp6947
g3
I1
sg4
I0
sg5
I0
ssV63gc8q
p6948
(dp6949
g3
I4
sg4
I0
sg5
I42
ssV62o7zj
p6950
(dp6951
g3
I0
sg4
I0
sg5
I25
ssV65pih9
p6952
(dp6953
g3
I1
sg4
I0
sg5
I1
ssV2v6zst
p6954
(dp6955
g3
I5
sg4
I0
sg5
I92
ssV65nvan
p6956
(dp6957
g3
I2
sg4
I0
sg5
I0
ssV649lxm
p6958
(dp6959
g3
I0
sg4
I0
sg5
I1
ssV66c86g
p6960
(dp6961
g3
I0
sg4
I0
sg5
I9
ssV1h89u8
p6962
(dp6963
g3
I7
sg4
I0
sg5
I158
ssV65ihw3
p6964
(dp6965
g3
I0
sg4
I0
sg5
I3
ssV64ap82
p6966
(dp6967
g3
I3
sg4
I0
sg5
I19
ssV63zm8g
p6968
(dp6969
g3
I1
sg4
I0
sg5
I6
ssV64lmw1
p6970
(dp6971
g3
I2
sg4
I0
sg5
I3
ssV1idmlm
p6972
(dp6973
g3
I0
sg4
I0
sg5
I1
ssV65jvja
p6974
(dp6975
g3
I13
sg4
I0
sg5
I0
ssV65ow54
p6976
(dp6977
g3
I2
sg4
I0
sg5
I5
ssV64hf9a
p6978
(dp6979
g3
I1
sg4
I0
sg5
I15
ssV655eqs
p6980
(dp6981
g3
I2
sg4
I0
sg5
I10
ssV65o253
p6982
(dp6983
g3
I0
sg4
I0
sg5
I2
ssV65jz7x
p6984
(dp6985
g3
I2
sg4
I0
sg5
I2
ssV65m7ah
p6986
(dp6987
g3
I3
sg4
I0
sg5
I1
ssV2v5fg5
p6988
(dp6989
g3
I0
sg4
I0
sg5
I1
ssV65gk24
p6990
(dp6991
g3
I0
sg4
I0
sg5
I5
ssV65h0uy
p6992
(dp6993
g3
I1
sg4
I0
sg5
I0
ssV65yt3e
p6994
(dp6995
g3
I0
sg4
I0
sg5
I3
ssV64dnhd
p6996
(dp6997
g3
I2
sg4
I0
sg5
I10
ssV65p2vq
p6998
(dp6999
g3
I7
sg4
I0
sg5
I1
ssV62y93c
p7000
(dp7001
g3
I2
sg4
I0
sg5
I14
ssV1iaqtz
p7002
(dp7003
g3
I5
sg4
I0
sg5
I266
ssV63a40k
p7004
(dp7005
g3
I6
sg4
I0
sg5
I220
ssV65w3kn
p7006
(dp7007
g3
I1
sg4
I0
sg5
I3
ssV65tntj
p7008
(dp7009
g3
I2
sg4
I0
sg5
I2
ssV65u4oh
p7010
(dp7011
g3
I0
sg4
I0
sg5
I1
ssV65pyz7
p7012
(dp7013
g3
I0
sg4
I0
sg5
I1
ssV1h7y4r
p7014
(dp7015
g3
I1
sg4
I0
sg5
I8
ssV66b5do
p7016
(dp7017
g3
I6
sg4
I0
sg5
I45
ssV65qc51
p7018
(dp7019
g3
I0
sg4
I0
sg5
I1
ssV1eso8q
p7020
(dp7021
g3
I9
sg4
I0
sg5
I14
ssV65r08g
p7022
(dp7023
g3
I0
sg4
I0
sg5
I2
ssV66j6il
p7024
(dp7025
g3
I0
sg4
I0
sg5
I1
ssV65seal
p7026
(dp7027
g3
I0
sg4
I0
sg5
I4
ssV65tntx
p7028
(dp7029
g3
I0
sg4
I0
sg5
I4
ssV2viq7w
p7030
(dp7031
g3
I2
sg4
I0
sg5
I23
ssV66aqii
p7032
(dp7033
g3
I1
sg4
I0
sg5
I0
ssV65ro03
p7034
(dp7035
g3
I0
sg4
I0
sg5
I3
ssV65ikij
p7036
(dp7037
g3
I0
sg4
I0
sg5
I0
ssV65j9v9
p7038
(dp7039
g3
I0
sg4
I0
sg5
I9
ssV65a15c
p7040
(dp7041
g3
I0
sg4
I0
sg5
I2
ssV64g6gy
p7042
(dp7043
g3
I1
sg4
I0
sg5
I5
ssV65f0ij
p7044
(dp7045
g3
I62
sg4
I0
sg5
I2305
ssV65nyj0
p7046
(dp7047
g3
I7
sg4
I0
sg5
I137
ssV2viipx
p7048
(dp7049
g3
I0
sg4
I0
sg5
I1
ssV65orb9
p7050
(dp7051
g3
I2
sg4
I0
sg5
I44
ssV1gbu0t
p7052
(dp7053
g3
I4
sg4
I0
sg5
I41
ssV66ajxy
p7054
(dp7055
g3
I2
sg4
I0
sg5
I8
ssV65j2lf
p7056
(dp7057
g3
I2
sg4
I0
sg5
I0
ssV65yn05
p7058
(dp7059
g3
I1
sg4
I0
sg5
I2
ssV65l4ll
p7060
(dp7061
g3
I4
sg4
I0
sg5
I6
ssV65tal5
p7062
(dp7063
g3
I1
sg4
I0
sg5
I10
ssV65oi9w
p7064
(dp7065
g3
I0
sg4
I0
sg5
I0
ssV62yddo
p7066
(dp7067
g3
I0
sg4
I0
sg5
I20
ssV2vhklz
p7068
(dp7069
g3
I0
sg4
I0
sg5
I3
ssV65svpd
p7070
(dp7071
g3
I0
sg4
I0
sg5
I0
ssV65k09r
p7072
(dp7073
g3
I4
sg4
I0
sg5
I32
ssV65utia
p7074
(dp7075
g3
I0
sg4
I0
sg5
I1
ssV65tgh0
p7076
(dp7077
g3
I0
sg4
I0
sg5
I1
ssV656bgv
p7078
(dp7079
g3
I1
sg4
I0
sg5
I8
ssV65nv1g
p7080
(dp7081
g3
I2
sg4
I0
sg5
I29
ssV65lovh
p7082
(dp7083
g3
I0
sg4
I0
sg5
I1
ssV66fr4r
p7084
(dp7085
g3
I0
sg4
I0
sg5
I4
ssV62ogau
p7086
(dp7087
g3
I1
sg4
I0
sg5
I4
ssV65wp0x
p7088
(dp7089
g3
I0
sg4
I0
sg5
I2
ssV1h2ewk
p7090
(dp7091
g3
I3
sg4
I0
sg5
I65
ssV66re73
p7092
(dp7093
g3
I0
sg4
I0
sg5
I4
ssV6526i6
p7094
(dp7095
g3
I0
sg4
I0
sg5
I0
ssV65tt8b
p7096
(dp7097
g3
I1
sg4
I0
sg5
I5
ssV62m4lb
p7098
(dp7099
g3
I3
sg4
I0
sg5
I20
ssV65ox0i
p7100
(dp7101
g3
I0
sg4
I0
sg5
I0
ssV65pno8
p7102
(dp7103
g3
I0
sg4
I0
sg5
I0
ssV65oqxr
p7104
(dp7105
g3
I3
sg4
I0
sg5
I1
ssV65n0u8
p7106
(dp7107
g3
I0
sg4
I0
sg5
I0
ssV661bg1
p7108
(dp7109
g3
I6
sg4
I0
sg5
I6
ssV65rh7d
p7110
(dp7111
g3
I2
sg4
I0
sg5
I12
ssV65u1wo
p7112
(dp7113
g3
I7
sg4
I0
sg5
I6
ssV66pvu6
p7114
(dp7115
g3
I3
sg4
I0
sg5
I6
ssV62ghqz
p7116
(dp7117
g3
I3
sg4
I0
sg5
I26
ssV1g3jn2
p7118
(dp7119
g3
I0
sg4
I0
sg5
I19
ssV65n2wl
p7120
(dp7121
g3
I1
sg4
I0
sg5
I1
ssV65q0vq
p7122
(dp7123
g3
I0
sg4
I0
sg5
I4
ssV63g6nm
p7124
(dp7125
g3
I0
sg4
I0
sg5
I3
ssV64ae8t
p7126
(dp7127
g3
I2
sg4
I0
sg5
I3
ssV65quxi
p7128
(dp7129
g3
I2
sg4
I0
sg5
I95
ssV65k3v9
p7130
(dp7131
g3
I1
sg4
I0
sg5
I0
ssV658b8z
p7132
(dp7133
g3
I1
sg4
I0
sg5
I4
ssV6556zr
p7134
(dp7135
g3
I0
sg4
I0
sg5
I2
ssV657u3y
p7136
(dp7137
g3
I9
sg4
I0
sg5
I26
ssV65lr0u
p7138
(dp7139
g3
I0
sg4
I0
sg5
I3
ssV65ioim
p7140
(dp7141
g3
I2
sg4
I0
sg5
I0
ssV65ru00
p7142
(dp7143
g3
I0
sg4
I0
sg5
I0
ssV65m4lm
p7144
(dp7145
g3
I2
sg4
I0
sg5
I4
ssV65fgs3
p7146
(dp7147
g3
I0
sg4
I0
sg5
I1
ssV63g9s2
p7148
(dp7149
g3
I2
sg4
I0
sg5
I9
ssV65vjci
p7150
(dp7151
g3
I0
sg4
I0
sg5
I5
ssV65e8qh
p7152
(dp7153
g3
I0
sg4
I0
sg5
I1
ssV65srby
p7154
(dp7155
g3
I1
sg4
I0
sg5
I3
ssV1idk74
p7156
(dp7157
g3
I0
sg4
I0
sg5
I1
ssV65fmeq
p7158
(dp7159
g3
I1
sg4
I0
sg5
I0
ssV2v6syw
p7160
(dp7161
g3
I2
sg4
I0
sg5
I28
ssV1idb82
p7162
(dp7163
g3
I4
sg4
I0
sg5
I137
ssV65wgr7
p7164
(dp7165
g3
I0
sg4
I0
sg5
I1
ssV65j5ka
p7166
(dp7167
g3
I3
sg4
I0
sg5
I10
ssV65pkgn
p7168
(dp7169
g3
I1
sg4
I0
sg5
I0
ssV2viktp
p7170
(dp7171
g3
I0
sg4
I0
sg5
I2
ssV65vdat
p7172
(dp7173
g3
I5
sg4
I0
sg5
I97
ssV66lh2s
p7174
(dp7175
g3
I3
sg4
I0
sg5
I22
ssV65inwy
p7176
(dp7177
g3
I0
sg4
I0
sg5
I1
ssV66yn0y
p7178
(dp7179
g3
I1
sg4
I0
sg5
I2
ssV65kxze
p7180
(dp7181
g3
I0
sg4
I0
sg5
I0
ssV65dvau
p7182
(dp7183
g3
I1
sg4
I0
sg5
I0
ssV65ufbl
p7184
(dp7185
g3
I1
sg4
I0
sg5
I2
ssV6552ft
p7186
(dp7187
g3
I3
sg4
I0
sg5
I16
ssV65hydl
p7188
(dp7189
g3
I0
sg4
I0
sg5
I0
ssV65h9xq
p7190
(dp7191
g3
I1
sg4
I0
sg5
I2
ssV64fgc2
p7192
(dp7193
g3
I1
sg4
I0
sg5
I3
ssV2vgmls
p7194
(dp7195
g3
I14
sg4
I0
sg5
I1152
ssV65lsvx
p7196
(dp7197
g3
I0
sg4
I0
sg5
I0
ssV1idfvj
p7198
(dp7199
g3
I3
sg4
I0
sg5
I124
ssV65uctw
p7200
(dp7201
g3
I0
sg4
I0
sg5
I1
ssV65iamx
p7202
(dp7203
g3
I0
sg4
I0
sg5
I2
ssV65pdsy
p7204
(dp7205
g3
I0
sg4
I0
sg5
I0
ssV1ilao4
p7206
(dp7207
g3
I0
sg4
I0
sg5
I0
ssV2v52xf
p7208
(dp7209
g3
I0
sg4
I0
sg5
I7
ssV63iwn2
p7210
(dp7211
g3
I2
sg4
I0
sg5
I16
ssV65jlkk
p7212
(dp7213
g3
I0
sg4
I0
sg5
I2
ssV66x312
p7214
(dp7215
g3
I0
sg4
I0
sg5
I12
ssV65i37r
p7216
(dp7217
g3
I3
sg4
I0
sg5
I2
ssV62vua2
p7218
(dp7219
g3
I1
sg4
I0
sg5
I3
ssV63tgir
p7220
(dp7221
g3
I4
sg4
I0
sg5
I21
ssV64l46n
p7222
(dp7223
g3
I1
sg4
I0
sg5
I2
ssV2vb537
p7224
(dp7225
g3
I0
sg4
I0
sg5
I0
ssV65izv1
p7226
(dp7227
g3
I2
sg4
I0
sg5
I20
ssV668c5x
p7228
(dp7229
g3
I6
sg4
I0
sg5
I0
ssV65tr2b
p7230
(dp7231
g3
I6
sg4
I0
sg5
I13
ssV65k3bg
p7232
(dp7233
g3
I1
sg4
I0
sg5
I1
ssV65f8t6
p7234
(dp7235
g3
I0
sg4
I0
sg5
I6
ssV66ec3w
p7236
(dp7237
g3
I2
sg4
I0
sg5
I9
ssV65qynf
p7238
(dp7239
g3
I16
sg4
I0
sg5
I102
ssV65luvv
p7240
(dp7241
g3
I0
sg4
I0
sg5
I9
ssV65tihq
p7242
(dp7243
g3
I1
sg4
I0
sg5
I0
ssV65phyt
p7244
(dp7245
g3
I0
sg4
I0
sg5
I1
ssV65cdp7
p7246
(dp7247
g3
I3
sg4
I0
sg5
I68
ssV65t10l
p7248
(dp7249
g3
I2
sg4
I0
sg5
I0
ssV6671tv
p7250
(dp7251
g3
I2
sg4
I0
sg5
I17
ssV65inii
p7252
(dp7253
g3
I84
sg4
I0
sg5
I3892
ssV65n8kw
p7254
(dp7255
g3
I6
sg4
I0
sg5
I58
ssV65p9xj
p7256
(dp7257
g3
I6
sg4
I0
sg5
I0
ssV2vi5wb
p7258
(dp7259
g3
I1
sg4
I0
sg5
I34
ssV66fa93
p7260
(dp7261
g3
I4
sg4
I0
sg5
I28
ssV65splp
p7262
(dp7263
g3
I0
sg4
I0
sg5
I2
ssV65k9vq
p7264
(dp7265
g3
I1
sg4
I0
sg5
I0
ssV65ny6g
p7266
(dp7267
g3
I2
sg4
I0
sg5
I0
ssV65wup3
p7268
(dp7269
g3
I1
sg4
I0
sg5
I1
ssV65iney
p7270
(dp7271
g3
I1
sg4
I0
sg5
I1
ssV1ie0pd
p7272
(dp7273
g3
I0
sg4
I0
sg5
I0
ssV62c0bk
p7274
(dp7275
g3
I1
sg4
I0
sg5
I3
ssV65ss3j
p7276
(dp7277
g3
I0
sg4
I0
sg5
I3
ssV65vzfe
p7278
(dp7279
g3
I0
sg4
I0
sg5
I1
ssV63biz7
p7280
(dp7281
g3
I1
sg4
I0
sg5
I2
ssV647w5p
p7282
(dp7283
g3
I0
sg4
I0
sg5
I8
ssV65ewee
p7284
(dp7285
g3
I2
sg4
I0
sg5
I3
ssV2v8xnh
p7286
(dp7287
g3
I0
sg4
I0
sg5
I2
ssV1gkkar
p7288
(dp7289
g3
I0
sg4
I0
sg5
I0
ssV64di28
p7290
(dp7291
g3
I0
sg4
I0
sg5
I3
ssV65ktwu
p7292
(dp7293
g3
I1
sg4
I0
sg5
I2
ssV65tztv
p7294
(dp7295
g3
I1
sg4
I0
sg5
I1
ssV65su8o
p7296
(dp7297
g3
I0
sg4
I0
sg5
I1
ssV65ustr
p7298
(dp7299
g3
I14
sg4
I0
sg5
I300
ssV633sec
p7300
(dp7301
g3
I1
sg4
I0
sg5
I7
ssV1h7a5e
p7302
(dp7303
g3
I4
sg4
I0
sg5
I56
ssV65n5ny
p7304
(dp7305
g3
I0
sg4
I0
sg5
I4
ssV65h2lu
p7306
(dp7307
g3
I0
sg4
I0
sg5
I3
ssV64nldp
p7308
(dp7309
g3
I0
sg4
I0
sg5
I1
ssV65t8lq
p7310
(dp7311
g3
I0
sg4
I0
sg5
I0
ssV66ybuc
p7312
(dp7313
g3
I0
sg4
I0
sg5
I1
ssV65pugy
p7314
(dp7315
g3
I15
sg4
I0
sg5
I82
ssV64lv78
p7316
(dp7317
g3
I1
sg4
I0
sg5
I6
ssV66eyfn
p7318
(dp7319
g3
I3
sg4
I0
sg5
I18
ssV65qny4
p7320
(dp7321
g3
I35
sg4
I0
sg5
I1459
ssV65g5ub
p7322
(dp7323
g3
I1
sg4
I0
sg5
I2
ssV65rohf
p7324
(dp7325
g3
I0
sg4
I0
sg5
I1
ssV64o0j8
p7326
(dp7327
g3
I0
sg4
I0
sg5
I17
ssV65opxu
p7328
(dp7329
g3
I7
sg4
I0
sg5
I17
ssV65o7rz
p7330
(dp7331
g3
I0
sg4
I0
sg5
I0
ssV66gadc
p7332
(dp7333
g3
I0
sg4
I0
sg5
I7
ssV667n8p
p7334
(dp7335
g3
I16
sg4
I0
sg5
I95
ssV649edy
p7336
(dp7337
g3
I1
sg4
I0
sg5
I9
ssV65r86j
p7338
(dp7339
g3
I0
sg4
I0
sg5
I0
ssV65s6hk
p7340
(dp7341
g3
I0
sg4
I0
sg5
I0
ssV2v7v91
p7342
(dp7343
g3
I0
sg4
I0
sg5
I3
ssV65rnnr
p7344
(dp7345
g3
I3
sg4
I0
sg5
I2
ssV65j99n
p7346
(dp7347
g3
I1
sg4
I0
sg5
I3
ssV66q7an
p7348
(dp7349
g3
I0
sg4
I0
sg5
I1
ssV632ou0
p7350
(dp7351
g3
I5
sg4
I0
sg5
I15
ssV65wa3d
p7352
(dp7353
g3
I0
sg4
I0
sg5
I0
ssV653y4y
p7354
(dp7355
g3
I132
sg4
I0
sg5
I6785
ssV2vdsdn
p7356
(dp7357
g3
I1
sg4
I0
sg5
I2
ssV65eyek
p7358
(dp7359
g3
I4
sg4
I0
sg5
I2
ssV65lrh3
p7360
(dp7361
g3
I1
sg4
I0
sg5
I2
ssV65hb49
p7362
(dp7363
g3
I0
sg4
I0
sg5
I0
ssVxkko1
p7364
(dp7365
g3
I10
sg4
I0
sg5
I118
ssV65ay7l
p7366
(dp7367
g3
I0
sg4
I0
sg5
I2
ssV66c9l5
p7368
(dp7369
g3
I3
sg4
I0
sg5
I9
ssV63wthr
p7370
(dp7371
g3
I0
sg4
I0
sg5
I3
ssV65r508
p7372
(dp7373
g3
I1
sg4
I0
sg5
I3
ssV65qfgk
p7374
(dp7375
g3
I0
sg4
I0
sg5
I0
ssV64zx3x
p7376
(dp7377
g3
I3
sg4
I0
sg5
I14
ssV65itls
p7378
(dp7379
g3
I5
sg4
I0
sg5
I230
ssV65z8el
p7380
(dp7381
g3
I0
sg4
I0
sg5
I0
ssV63v2ms
p7382
(dp7383
g3
I5
sg4
I0
sg5
I7
ssV65dxl1
p7384
(dp7385
g3
I5
sg4
I0
sg5
I20
ssV2vie5k
p7386
(dp7387
g3
I0
sg4
I0
sg5
I2
ssV65jabw
p7388
(dp7389
g3
I0
sg4
I0
sg5
I1
ssV65hmrg
p7390
(dp7391
g3
I0
sg4
I0
sg5
I3
ssV65jotx
p7392
(dp7393
g3
I4
sg4
I0
sg5
I114
ssV65okmy
p7394
(dp7395
g3
I1
sg4
I0
sg5
I4
ssV1fieks
p7396
(dp7397
g3
I11
sg4
I0
sg5
I326
ssV64vih3
p7398
(dp7399
g3
I3
sg4
I0
sg5
I1
ssV2vhh2q
p7400
(dp7401
g3
I0
sg4
I0
sg5
I2
ssV65iuhd
p7402
(dp7403
g3
I0
sg4
I0
sg5
I0
ssV64353k
p7404
(dp7405
g3
I21
sg4
I0
sg5
I33
ssV649ne8
p7406
(dp7407
g3
I4
sg4
I0
sg5
I9
ssV64eha3
p7408
(dp7409
g3
I0
sg4
I0
sg5
I2
ssV65ni7s
p7410
(dp7411
g3
I1
sg4
I0
sg5
I8
ssV65h4wc
p7412
(dp7413
g3
I1
sg4
I0
sg5
I1
ssV2v3fan
p7414
(dp7415
g3
I3
sg4
I0
sg5
I132
ssV66h6d5
p7416
(dp7417
g3
I0
sg4
I0
sg5
I2
ssV6566jm
p7418
(dp7419
g3
I5
sg4
I0
sg5
I20
ssV65tqff
p7420
(dp7421
g3
I6
sg4
I0
sg5
I3
ssV66d5lg
p7422
(dp7423
g3
I0
sg4
I0
sg5
I0
ssV662vhi
p7424
(dp7425
g3
I3
sg4
I0
sg5
I57
ssV2v9b29
p7426
(dp7427
g3
I0
sg4
I0
sg5
I3
ssV65snff
p7428
(dp7429
g3
I0
sg4
I0
sg5
I2
ssV64bzts
p7430
(dp7431
g3
I0
sg4
I0
sg5
I1
ssV65ifcc
p7432
(dp7433
g3
I0
sg4
I0
sg5
I1
ssV65oai1
p7434
(dp7435
g3
I2
sg4
I0
sg5
I0
ssV65f6pm
p7436
(dp7437
g3
I2
sg4
I0
sg5
I2
ssV64tbpm
p7438
(dp7439
g3
I2
sg4
I0
sg5
I5
ssV65wbq4
p7440
(dp7441
g3
I6
sg4
I0
sg5
I66
ssV65ia7x
p7442
(dp7443
g3
I83
sg4
I0
sg5
I4846
ssV65h4rp
p7444
(dp7445
g3
I10
sg4
I0
sg5
I6
ssV65vgrj
p7446
(dp7447
g3
I1
sg4
I0
sg5
I0
ssV65hqxr
p7448
(dp7449
g3
I1
sg4
I0
sg5
I1
ssV65nfq7
p7450
(dp7451
g3
I2
sg4
I0
sg5
I32
ssV1h8agc
p7452
(dp7453
g3
I0
sg4
I0
sg5
I26
ssV65sszb
p7454
(dp7455
g3
I0
sg4
I0
sg5
I0
ssV65vvgx
p7456
(dp7457
g3
I0
sg4
I0
sg5
I0
ssV62iiu4
p7458
(dp7459
g3
I0
sg4
I0
sg5
I0
ssV65cwts
p7460
(dp7461
g3
I3
sg4
I0
sg5
I20
ssV2v2qhw
p7462
(dp7463
g3
I2
sg4
I0
sg5
I2
ssV64ajuz
p7464
(dp7465
g3
I2
sg4
I0
sg5
I19
ssV65jx8b
p7466
(dp7467
g3
I0
sg4
I0
sg5
I0
ssV66mfpx
p7468
(dp7469
g3
I2
sg4
I0
sg5
I21
ssV65jx8f
p7470
(dp7471
g3
I22
sg4
I0
sg5
I841
ssV2v3bya
p7472
(dp7473
g3
I0
sg4
I0
sg5
I1
ssV65nbyn
p7474
(dp7475
g3
I3
sg4
I0
sg5
I3
ssV1igbe7
p7476
(dp7477
g3
I6
sg4
I0
sg5
I79
ssV63dmsy
p7478
(dp7479
g3
I0
sg4
I0
sg5
I0
ssV65ravw
p7480
(dp7481
g3
I5
sg4
I0
sg5
I55
ssV62hq18
p7482
(dp7483
g3
I1
sg4
I0
sg5
I24
ssV65nj1t
p7484
(dp7485
g3
I0
sg4
I0
sg5
I2
ssV65p6ml
p7486
(dp7487
g3
I0
sg4
I0
sg5
I2
ssV64da31
p7488
(dp7489
g3
I107
sg4
I0
sg5
I3984
ssV65ornr
p7490
(dp7491
g3
I0
sg4
I0
sg5
I12
ssVlmkmy
p7492
(dp7493
g3
I0
sg4
I0
sg5
I1
ssV65py0m
p7494
(dp7495
g3
I175
sg4
I0
sg5
I2413
ssV65vtw8
p7496
(dp7497
g3
I0
sg4
I0
sg5
I0
ssV63dmce
p7498
(dp7499
g3
I1
sg4
I0
sg5
I6
ssV65foep
p7500
(dp7501
g3
I1
sg4
I0
sg5
I0
ssV65irtq
p7502
(dp7503
g3
I3
sg4
I0
sg5
I1
ssV657sr8
p7504
(dp7505
g3
I0
sg4
I0
sg5
I1
ssV65wjsk
p7506
(dp7507
g3
I3
sg4
I0
sg5
I20
ssV66624o
p7508
(dp7509
g3
I1
sg4
I0
sg5
I13
ssV65j47i
p7510
(dp7511
g3
I8
sg4
I0
sg5
I74
ssV65k587
p7512
(dp7513
g3
I2
sg4
I0
sg5
I0
ssV65og6d
p7514
(dp7515
g3
I0
sg4
I0
sg5
I3
ssV65sila
p7516
(dp7517
g3
I4
sg4
I0
sg5
I1
ssV65u1vx
p7518
(dp7519
g3
I0
sg4
I0
sg5
I6
ssV65lbm6
p7520
(dp7521
g3
I16
sg4
I0
sg5
I112
ssV65k83m
p7522
(dp7523
g3
I0
sg4
I0
sg5
I8
ssV63src0
p7524
(dp7525
g3
I1
sg4
I0
sg5
I25
ssV65qsil
p7526
(dp7527
g3
I5
sg4
I0
sg5
I122
ssV63lvke
p7528
(dp7529
g3
I17
sg4
I0
sg5
I0
ssV62x5fo
p7530
(dp7531
g3
I7
sg4
I0
sg5
I328
ssV65njhv
p7532
(dp7533
g3
I4
sg4
I0
sg5
I3
ssV66zyeg
p7534
(dp7535
g3
I0
sg4
I0
sg5
I2
ssV63ywuu
p7536
(dp7537
g3
I2
sg4
I0
sg5
I10
ssV65s617
p7538
(dp7539
g3
I4
sg4
I0
sg5
I60
ssV6585od
p7540
(dp7541
g3
I0
sg4
I0
sg5
I5
ssV65pi0h
p7542
(dp7543
g3
I17
sg4
I0
sg5
I38
ssV65p13w
p7544
(dp7545
g3
I2
sg4
I0
sg5
I13
ssV65rgbt
p7546
(dp7547
g3
I1
sg4
I0
sg5
I1
ssV65ogmq
p7548
(dp7549
g3
I1
sg4
I0
sg5
I10
ssV65gv6t
p7550
(dp7551
g3
I1
sg4
I0
sg5
I0
ssV62d7av
p7552
(dp7553
g3
I2
sg4
I0
sg5
I25
ssV1hrca9
p7554
(dp7555
g3
I4
sg4
I0
sg5
I63
ssV64o9g5
p7556
(dp7557
g3
I0
sg4
I0
sg5
I0
ssV2v3fsi
p7558
(dp7559
g3
I2
sg4
I0
sg5
I25
ssV65ml9j
p7560
(dp7561
g3
I0
sg4
I0
sg5
I35
ssV65j7we
p7562
(dp7563
g3
I0
sg4
I0
sg5
I2
ssV668fvw
p7564
(dp7565
g3
I1
sg4
I0
sg5
I11
ssV65q8uf
p7566
(dp7567
g3
I1
sg4
I0
sg5
I2
ssV63uhke
p7568
(dp7569
g3
I0
sg4
I0
sg5
I1
ssV65nrci
p7570
(dp7571
g3
I2
sg4
I0
sg5
I0
ssV65o641
p7572
(dp7573
g3
I4
sg4
I0
sg5
I0
ssV65gt6r
p7574
(dp7575
g3
I1
sg4
I0
sg5
I1
ssV66bwsl
p7576
(dp7577
g3
I0
sg4
I0
sg5
I0
ssV65m3x5
p7578
(dp7579
g3
I1
sg4
I0
sg5
I0
ssV65kalx
p7580
(dp7581
g3
I1
sg4
I0
sg5
I0
ssV65f0zo
p7582
(dp7583
g3
I12
sg4
I0
sg5
I557
ssV64jix8
p7584
(dp7585
g3
I7
sg4
I0
sg5
I299
ssV62elqb
p7586
(dp7587
g3
I9
sg4
I0
sg5
I16
ssV1hum8l
p7588
(dp7589
g3
I7
sg4
I0
sg5
I63
ssV665gmx
p7590
(dp7591
g3
I0
sg4
I0
sg5
I7
ssV65nkn6
p7592
(dp7593
g3
I0
sg4
I0
sg5
I3
ssV64upqm
p7594
(dp7595
g3
I0
sg4
I0
sg5
I7
ssV65j8si
p7596
(dp7597
g3
I0
sg4
I0
sg5
I4
ssV65oy2t
p7598
(dp7599
g3
I0
sg4
I0
sg5
I1
ssV63nz83
p7600
(dp7601
g3
I0
sg4
I0
sg5
I0
ssV65keli
p7602
(dp7603
g3
I0
sg4
I0
sg5
I0
ssV66kkew
p7604
(dp7605
g3
I0
sg4
I0
sg5
I6
ssV6483mf
p7606
(dp7607
g3
I1
sg4
I0
sg5
I21
ssV65or5f
p7608
(dp7609
g3
I1
sg4
I0
sg5
I16
ssV64ivvb
p7610
(dp7611
g3
I2
sg4
I0
sg5
I40
ssV65fqtg
p7612
(dp7613
g3
I0
sg4
I0
sg5
I0
ssV65ga1e
p7614
(dp7615
g3
I0
sg4
I0
sg5
I0
ssV65ffnu
p7616
(dp7617
g3
I0
sg4
I0
sg5
I6
ssV1g8sg7
p7618
(dp7619
g3
I0
sg4
I0
sg5
I6
ssV65n0f9
p7620
(dp7621
g3
I2
sg4
I0
sg5
I4
ssV65tmmb
p7622
(dp7623
g3
I0
sg4
I0
sg5
I0
ssV1hub82
p7624
(dp7625
g3
I12
sg4
I0
sg5
I38
ssV142cgr
p7626
(dp7627
g3
I0
sg4
I0
sg5
I2
ssV64xc98
p7628
(dp7629
g3
I82
sg4
I0
sg5
I2387
ssV64svli
p7630
(dp7631
g3
I0
sg4
I0
sg5
I1
ssV65lj52
p7632
(dp7633
g3
I1
sg4
I0
sg5
I25
ssV66piy4
p7634
(dp7635
g3
I0
sg4
I0
sg5
I15
ssV634asw
p7636
(dp7637
g3
I5
sg4
I0
sg5
I88
ssV65rgtz
p7638
(dp7639
g3
I2
sg4
I0
sg5
I4
ssV65jmxc
p7640
(dp7641
g3
I1
sg4
I0
sg5
I4
ssV65tgi7
p7642
(dp7643
g3
I20
sg4
I0
sg5
I29
ssV664vd1
p7644
(dp7645
g3
I0
sg4
I0
sg5
I28
ssV6546eh
p7646
(dp7647
g3
I0
sg4
I0
sg5
I13
ssV65kmrb
p7648
(dp7649
g3
I0
sg4
I0
sg5
I0
ssV65xmb0
p7650
(dp7651
g3
I1
sg4
I0
sg5
I5
ssV65rj4y
p7652
(dp7653
g3
I0
sg4
I0
sg5
I3
ssV6705dt
p7654
(dp7655
g3
I1
sg4
I0
sg5
I14
ssV65lr75
p7656
(dp7657
g3
I11
sg4
I0
sg5
I10
ssV65g8hh
p7658
(dp7659
g3
I0
sg4
I0
sg5
I1
ssV65xsc1
p7660
(dp7661
g3
I3
sg4
I0
sg5
I21
ssV65lpb1
p7662
(dp7663
g3
I0
sg4
I0
sg5
I23
ssV65g2pw
p7664
(dp7665
g3
I1
sg4
I0
sg5
I41
ssV65nxce
p7666
(dp7667
g3
I4
sg4
I0
sg5
I8
ssV651iig
p7668
(dp7669
g3
I0
sg4
I0
sg5
I1
ssV665wal
p7670
(dp7671
g3
I0
sg4
I0
sg5
I13
ssV62mrz7
p7672
(dp7673
g3
I3
sg4
I0
sg5
I17
ssV64op57
p7674
(dp7675
g3
I1
sg4
I0
sg5
I4
ssV65jqgs
p7676
(dp7677
g3
I5
sg4
I0
sg5
I1
ssV2vh480
p7678
(dp7679
g3
I0
sg4
I0
sg5
I1
ssV661gb0
p7680
(dp7681
g3
I25
sg4
I0
sg5
I758
ssV65fvag
p7682
(dp7683
g3
I4
sg4
I0
sg5
I5
ssV63yz9o
p7684
(dp7685
g3
I2
sg4
I0
sg5
I49
ssV62n9gw
p7686
(dp7687
g3
I0
sg4
I0
sg5
I10
ssV63vp24
p7688
(dp7689
g3
I0
sg4
I0
sg5
I0
ssV66yvvp
p7690
(dp7691
g3
I0
sg4
I0
sg5
I5
ssV65fprk
p7692
(dp7693
g3
I2
sg4
I0
sg5
I9
ssV658vll
p7694
(dp7695
g3
I3
sg4
I0
sg5
I28
ssV65mh95
p7696
(dp7697
g3
I13
sg4
I0
sg5
I180
ssV65g92b
p7698
(dp7699
g3
I2
sg4
I0
sg5
I6
ssV2v985m
p7700
(dp7701
g3
I2
sg4
I0
sg5
I7
ssV65henn
p7702
(dp7703
g3
I5
sg4
I0
sg5
I21
ssV65p9k9
p7704
(dp7705
g3
I4
sg4
I0
sg5
I84
ssV65k1i9
p7706
(dp7707
g3
I0
sg4
I0
sg5
I3
ssV63t8kz
p7708
(dp7709
g3
I18
sg4
I0
sg5
I505
ssV643tb9
p7710
(dp7711
g3
I0
sg4
I0
sg5
I9
ssV63iwlo
p7712
(dp7713
g3
I2
sg4
I0
sg5
I43
ssV65spmj
p7714
(dp7715
g3
I0
sg4
I0
sg5
I0
ssV65fva1
p7716
(dp7717
g3
I1
sg4
I0
sg5
I31
ssV63jmyc
p7718
(dp7719
g3
I0
sg4
I0
sg5
I0
ssV65plnf
p7720
(dp7721
g3
I0
sg4
I0
sg5
I1
ssV65m2ap
p7722
(dp7723
g3
I0
sg4
I0
sg5
I0
ssV671p9l
p7724
(dp7725
g3
I0
sg4
I0
sg5
I52
ssV64inwf
p7726
(dp7727
g3
I9
sg4
I0
sg5
I24
ssV65q35y
p7728
(dp7729
g3
I1
sg4
I0
sg5
I33
ssV65vwmk
p7730
(dp7731
g3
I4
sg4
I0
sg5
I0
ssV65nmxn
p7732
(dp7733
g3
I1
sg4
I0
sg5
I6
ssV2v72j6
p7734
(dp7735
g3
I27
sg4
I0
sg5
I1163
ssV65iq7a
p7736
(dp7737
g3
I3
sg4
I0
sg5
I410
ssV65lx96
p7738
(dp7739
g3
I1
sg4
I0
sg5
I2
ssV1iekpm
p7740
(dp7741
g3
I35
sg4
I0
sg5
I3514
ssV66ibyw
p7742
(dp7743
g3
I2
sg4
I0
sg5
I22
ssV66c9q5
p7744
(dp7745
g3
I1
sg4
I0
sg5
I1
ssV63368n
p7746
(dp7747
g3
I0
sg4
I0
sg5
I27
ssV63bgjc
p7748
(dp7749
g3
I0
sg4
I0
sg5
I1
ssV65s1gv
p7750
(dp7751
g3
I1
sg4
I0
sg5
I2
ssV65s7ge
p7752
(dp7753
g3
I0
sg4
I0
sg5
I3
ssV65oa0m
p7754
(dp7755
g3
I0
sg4
I0
sg5
I1
ssV65p3nj
p7756
(dp7757
g3
I3
sg4
I0
sg5
I1
ssV65s4sd
p7758
(dp7759
g3
I6
sg4
I0
sg5
I88
ssV65na9u
p7760
(dp7761
g3
I1
sg4
I0
sg5
I13
ssV65s03p
p7762
(dp7763
g3
I4
sg4
I0
sg5
I0
ssV62slfm
p7764
(dp7765
g3
I3
sg4
I0
sg5
I0
ssV65tp3w
p7766
(dp7767
g3
I3
sg4
I0
sg5
I2
ssV65k8mw
p7768
(dp7769
g3
I0
sg4
I0
sg5
I1
ssV1inln8
p7770
(dp7771
g3
I4
sg4
I0
sg5
I73
ssV65qlff
p7772
(dp7773
g3
I4
sg4
I0
sg5
I0
ssV65hqj5
p7774
(dp7775
g3
I0
sg4
I0
sg5
I0
ssV2v7pay
p7776
(dp7777
g3
I1
sg4
I0
sg5
I13
ssV65mocs
p7778
(dp7779
g3
I0
sg4
I0
sg5
I1
ssV66n0rn
p7780
(dp7781
g3
I0
sg4
I0
sg5
I13
ssV64qvtf
p7782
(dp7783
g3
I1
sg4
I0
sg5
I18
ssV65ns5c
p7784
(dp7785
g3
I3
sg4
I0
sg5
I1
ssV65o7qu
p7786
(dp7787
g3
I4
sg4
I0
sg5
I29
ssV65p74l
p7788
(dp7789
g3
I1
sg4
I0
sg5
I2
ssV2vd5ec
p7790
(dp7791
g3
I7
sg4
I0
sg5
I23
ssV2v3bxq
p7792
(dp7793
g3
I5
sg4
I0
sg5
I98
ssV64mw5d
p7794
(dp7795
g3
I1
sg4
I0
sg5
I3
ssV65flre
p7796
(dp7797
g3
I4
sg4
I0
sg5
I23
ssV662p5b
p7798
(dp7799
g3
I0
sg4
I0
sg5
I2
ssV65hsaf
p7800
(dp7801
g3
I0
sg4
I0
sg5
I1
ssV2v62vl
p7802
(dp7803
g3
I0
sg4
I0
sg5
I0
ssV65l1iz
p7804
(dp7805
g3
I28
sg4
I0
sg5
I973
ssV65u6iu
p7806
(dp7807
g3
I4
sg4
I0
sg5
I3
ssV65r6og
p7808
(dp7809
g3
I0
sg4
I0
sg5
I1
ssV65m93s
p7810
(dp7811
g3
I0
sg4
I0
sg5
I0
ssV62r7fl
p7812
(dp7813
g3
I15
sg4
I0
sg5
I334
ssV66pzh9
p7814
(dp7815
g3
I1
sg4
I0
sg5
I32
ssV62ds18
p7816
(dp7817
g3
I2
sg4
I0
sg5
I5
ssV673dpa
p7818
(dp7819
g3
I0
sg4
I0
sg5
I9
ssV65qtyu
p7820
(dp7821
g3
I0
sg4
I0
sg5
I0
ssV65stqk
p7822
(dp7823
g3
I2
sg4
I0
sg5
I62
ssV2vha6h
p7824
(dp7825
g3
I0
sg4
I0
sg5
I5
ssV2vha6j
p7826
(dp7827
g3
I0
sg4
I0
sg5
I19
ssV65jqqu
p7828
(dp7829
g3
I2
sg4
I0
sg5
I5
ssV65qabs
p7830
(dp7831
g3
I0
sg4
I0
sg5
I0
ssV63ovxb
p7832
(dp7833
g3
I0
sg4
I0
sg5
I4
ssV670ix4
p7834
(dp7835
g3
I0
sg4
I0
sg5
I17
ssV65se5f
p7836
(dp7837
g3
I0
sg4
I0
sg5
I0
ssV65ny9t
p7838
(dp7839
g3
I81
sg4
I0
sg5
I1220
ssV63uadr
p7840
(dp7841
g3
I1
sg4
I0
sg5
I0
ssV66df7t
p7842
(dp7843
g3
I1
sg4
I0
sg5
I0
ssV65hpu0
p7844
(dp7845
g3
I3
sg4
I0
sg5
I1
ssV65glbu
p7846
(dp7847
g3
I0
sg4
I0
sg5
I5
ssV64yx6u
p7848
(dp7849
g3
I0
sg4
I0
sg5
I1
ssV65vlx9
p7850
(dp7851
g3
I0
sg4
I0
sg5
I0
ssV65o7q7
p7852
(dp7853
g3
I0
sg4
I0
sg5
I0
ssV65n21n
p7854
(dp7855
g3
I5
sg4
I0
sg5
I66
ssV65ql1w
p7856
(dp7857
g3
I2
sg4
I0
sg5
I0
ssV62dcrh
p7858
(dp7859
g3
I0
sg4
I0
sg5
I24
ssV66ewgj
p7860
(dp7861
g3
I0
sg4
I0
sg5
I1
ssV65s5ss
p7862
(dp7863
g3
I4
sg4
I0
sg5
I21
ssV2v2kkj
p7864
(dp7865
g3
I0
sg4
I0
sg5
I1
ssV65eqfb
p7866
(dp7867
g3
I3
sg4
I0
sg5
I6
ssV670atj
p7868
(dp7869
g3
I5
sg4
I0
sg5
I117
ssV65se5x
p7870
(dp7871
g3
I1
sg4
I0
sg5
I3
ssV1hymtb
p7872
(dp7873
g3
I2
sg4
I0
sg5
I34
ssV65we5b
p7874
(dp7875
g3
I2
sg4
I0
sg5
I20
ssV65sc14
p7876
(dp7877
g3
I0
sg4
I0
sg5
I11
ssV64ybbr
p7878
(dp7879
g3
I0
sg4
I0
sg5
I1
ssV66d4o0
p7880
(dp7881
g3
I0
sg4
I0
sg5
I0
ssV6608g7
p7882
(dp7883
g3
I0
sg4
I0
sg5
I2
ssV62qutx
p7884
(dp7885
g3
I0
sg4
I0
sg5
I1
ssV64fg9e
p7886
(dp7887
g3
I0
sg4
I0
sg5
I19
ssV65rqec
p7888
(dp7889
g3
I0
sg4
I0
sg5
I1
ssV64xo7n
p7890
(dp7891
g3
I11
sg4
I0
sg5
I24
ssV65iap9
p7892
(dp7893
g3
I0
sg4
I0
sg5
I1
ssV673e2b
p7894
(dp7895
g3
I3
sg4
I0
sg5
I9
ssV639cux
p7896
(dp7897
g3
I0
sg4
I0
sg5
I15
ssV63mfj0
p7898
(dp7899
g3
I1
sg4
I0
sg5
I11
ssV65mz5c
p7900
(dp7901
g3
I2
sg4
I0
sg5
I0
ssV659idm
p7902
(dp7903
g3
I3
sg4
I0
sg5
I2
ssV65rx8t
p7904
(dp7905
g3
I6
sg4
I0
sg5
I11
ssV65ta05
p7906
(dp7907
g3
I3
sg4
I0
sg5
I3
ssV65ta06
p7908
(dp7909
g3
I1
sg4
I0
sg5
I3
ssV63rjis
p7910
(dp7911
g3
I4
sg4
I0
sg5
I45
ssV65x5pc
p7912
(dp7913
g3
I2
sg4
I0
sg5
I2
ssV65iqa4
p7914
(dp7915
g3
I1
sg4
I0
sg5
I8
ssV65t2oh
p7916
(dp7917
g3
I2
sg4
I0
sg5
I35
ssV62i3ch
p7918
(dp7919
g3
I0
sg4
I0
sg5
I8
ssV65sws3
p7920
(dp7921
g3
I0
sg4
I0
sg5
I1
ssV64zmoe
p7922
(dp7923
g3
I0
sg4
I0
sg5
I8
ssV65mpov
p7924
(dp7925
g3
I3
sg4
I0
sg5
I8
ssV668mlp
p7926
(dp7927
g3
I1
sg4
I0
sg5
I3
ssV62qcg3
p7928
(dp7929
g3
I0
sg4
I0
sg5
I66
ssV64jh9x
p7930
(dp7931
g3
I0
sg4
I0
sg5
I11
ssV665pq0
p7932
(dp7933
g3
I2
sg4
I0
sg5
I1
ssV62m4qi
p7934
(dp7935
g3
I0
sg4
I0
sg5
I6
ssV65whxi
p7936
(dp7937
g3
I0
sg4
I0
sg5
I15
ssV64r4oc
p7938
(dp7939
g3
I7
sg4
I0
sg5
I30
ssV65i9vw
p7940
(dp7941
g3
I0
sg4
I0
sg5
I1
ssV65lhq1
p7942
(dp7943
g3
I5
sg4
I0
sg5
I127
ssV65oq3l
p7944
(dp7945
g3
I13
sg4
I0
sg5
I177
ssV63nkqz
p7946
(dp7947
g3
I0
sg4
I0
sg5
I24
ssV65py1z
p7948
(dp7949
g3
I0
sg4
I0
sg5
I1
ssV65ipw1
p7950
(dp7951
g3
I20
sg4
I0
sg5
I318
ssV65fpyj
p7952
(dp7953
g3
I5
sg4
I0
sg5
I11
ssV65huce
p7954
(dp7955
g3
I4
sg4
I0
sg5
I8
ssVxjo1f
p7956
(dp7957
g3
I0
sg4
I0
sg5
I0
ssV65ruyc
p7958
(dp7959
g3
I5
sg4
I0
sg5
I207
ssV65ruyb
p7960
(dp7961
g3
I2
sg4
I0
sg5
I4
ssV1cyzdq
p7962
(dp7963
g3
I3
sg4
I0
sg5
I99
ssV65s1p0
p7964
(dp7965
g3
I3
sg4
I0
sg5
I1
ssV1i0m0q
p7966
(dp7967
g3
I4
sg4
I0
sg5
I23
ssV649lh1
p7968
(dp7969
g3
I1
sg4
I0
sg5
I3
ssV65qmh9
p7970
(dp7971
g3
I0
sg4
I0
sg5
I1
ssV1gzkjj
p7972
(dp7973
g3
I0
sg4
I0
sg5
I1
ssV2v8xoj
p7974
(dp7975
g3
I1
sg4
I0
sg5
I4
ssV65oro5
p7976
(dp7977
g3
I3
sg4
I0
sg5
I3
ssV62nmtc
p7978
(dp7979
g3
I2
sg4
I0
sg5
I6
ssV65gq4l
p7980
(dp7981
g3
I1
sg4
I0
sg5
I0
ssV65xrj1
p7982
(dp7983
g3
I7
sg4
I0
sg5
I19
ssV1hk39u
p7984
(dp7985
g3
I0
sg4
I0
sg5
I3
ssV65mzn1
p7986
(dp7987
g3
I4
sg4
I0
sg5
I69
ssV669rgj
p7988
(dp7989
g3
I0
sg4
I0
sg5
I1
ssV63l8ss
p7990
(dp7991
g3
I3
sg4
I0
sg5
I19
ssV2vixu1
p7992
(dp7993
g3
I1
sg4
I0
sg5
I34
ssV667s0p
p7994
(dp7995
g3
I1
sg4
I0
sg5
I1
ssV65vycj
p7996
(dp7997
g3
I0
sg4
I0
sg5
I0
ssV64ii9b
p7998
(dp7999
g3
I5
sg4
I0
sg5
I41
ssV65puda
p8000
(dp8001
g3
I1
sg4
I0
sg5
I2
ssV65d410
p8002
(dp8003
g3
I0
sg4
I0
sg5
I3
ssV65j6sl
p8004
(dp8005
g3
I0
sg4
I0
sg5
I1
ssV65ipwj
p8006
(dp8007
g3
I3
sg4
I0
sg5
I15
ssV65i1l7
p8008
(dp8009
g3
I2
sg4
I0
sg5
I1
ssV66cgrf
p8010
(dp8011
g3
I0
sg4
I0
sg5
I1
ssV65t8oy
p8012
(dp8013
g3
I0
sg4
I0
sg5
I0
ssV62esst
p8014
(dp8015
g3
I1
sg4
I0
sg5
I0
ssV66mg9q
p8016
(dp8017
g3
I0
sg4
I0
sg5
I3
ssV63sd61
p8018
(dp8019
g3
I15
sg4
I0
sg5
I176
ssV66dmvq
p8020
(dp8021
g3
I0
sg4
I0
sg5
I1
ssV65ivgh
p8022
(dp8023
g3
I0
sg4
I0
sg5
I0
ssV65h2kd
p8024
(dp8025
g3
I0
sg4
I0
sg5
I6
ss.